
rv64ui-v-ma_data:     file format elf64-littleriscv


Disassembly of section .text.init:

0000000080000000 <_start>:
    80000000:	00c0006f          	j	8000000c <handle_reset>

0000000080000004 <nmi_vector>:
    80000004:	2c40206f          	j	800022c8 <wtf>

0000000080000008 <trap_vector>:
    80000008:	2c00206f          	j	800022c8 <wtf>

000000008000000c <handle_reset>:
    8000000c:	00000093          	li	ra,0
    80000010:	00000113          	li	sp,0
    80000014:	00000193          	li	gp,0
    80000018:	00000213          	li	tp,0
    8000001c:	00000293          	li	t0,0
    80000020:	00000313          	li	t1,0
    80000024:	00000393          	li	t2,0
    80000028:	00000413          	li	s0,0
    8000002c:	00000493          	li	s1,0
    80000030:	00000513          	li	a0,0
    80000034:	00000593          	li	a1,0
    80000038:	00000613          	li	a2,0
    8000003c:	00000693          	li	a3,0
    80000040:	00000713          	li	a4,0
    80000044:	00000793          	li	a5,0
    80000048:	00000813          	li	a6,0
    8000004c:	00000893          	li	a7,0
    80000050:	00000913          	li	s2,0
    80000054:	00000993          	li	s3,0
    80000058:	00000a13          	li	s4,0
    8000005c:	00000a93          	li	s5,0
    80000060:	00000b13          	li	s6,0
    80000064:	00000b93          	li	s7,0
    80000068:	00000c13          	li	s8,0
    8000006c:	00000c93          	li	s9,0
    80000070:	00000d13          	li	s10,0
    80000074:	00000d93          	li	s11,0
    80000078:	00000e13          	li	t3,0
    8000007c:	00000e93          	li	t4,0
    80000080:	00000f13          	li	t5,0
    80000084:	00000f93          	li	t6,0
    80000088:	00000297          	auipc	t0,0x0
    8000008c:	01028293          	addi	t0,t0,16 # 80000098 <handle_reset+0x8c>
    80000090:	30529073          	csrw	mtvec,t0
    80000094:	74445073          	csrwi	0x744,8
    80000098:	00000297          	auipc	t0,0x0
    8000009c:	f7028293          	addi	t0,t0,-144 # 80000008 <trap_vector>
    800000a0:	30529073          	csrw	mtvec,t0
    800000a4:	0000f117          	auipc	sp,0xf
    800000a8:	e3c10113          	addi	sp,sp,-452 # 8000eee0 <freelist_head+0x3ed8>
    800000ac:	f14022f3          	csrr	t0,mhartid
    800000b0:	00c29293          	slli	t0,t0,0xc
    800000b4:	00510133          	add	sp,sp,t0
    800000b8:	34011073          	csrw	mscratch,sp
    800000bc:	1d9020ef          	jal	80002a94 <extra_boot>
    800000c0:	00003517          	auipc	a0,0x3
    800000c4:	9e850513          	addi	a0,a0,-1560 # 80002aa8 <userstart>
    800000c8:	7c40206f          	j	8000288c <vm_boot>

00000000800000cc <pop_tf>:
    800000cc:	10853283          	ld	t0,264(a0)
    800000d0:	14129073          	csrw	sepc,t0
    800000d4:	00853083          	ld	ra,8(a0)
    800000d8:	01053103          	ld	sp,16(a0)
    800000dc:	01853183          	ld	gp,24(a0)
    800000e0:	02053203          	ld	tp,32(a0)
    800000e4:	02853283          	ld	t0,40(a0)
    800000e8:	03053303          	ld	t1,48(a0)
    800000ec:	03853383          	ld	t2,56(a0)
    800000f0:	04053403          	ld	s0,64(a0)
    800000f4:	04853483          	ld	s1,72(a0)
    800000f8:	05853583          	ld	a1,88(a0)
    800000fc:	06053603          	ld	a2,96(a0)
    80000100:	06853683          	ld	a3,104(a0)
    80000104:	07053703          	ld	a4,112(a0)
    80000108:	07853783          	ld	a5,120(a0)
    8000010c:	08053803          	ld	a6,128(a0)
    80000110:	08853883          	ld	a7,136(a0)
    80000114:	09053903          	ld	s2,144(a0)
    80000118:	09853983          	ld	s3,152(a0)
    8000011c:	0a053a03          	ld	s4,160(a0)
    80000120:	0a853a83          	ld	s5,168(a0)
    80000124:	0b053b03          	ld	s6,176(a0)
    80000128:	0b853b83          	ld	s7,184(a0)
    8000012c:	0c053c03          	ld	s8,192(a0)
    80000130:	0c853c83          	ld	s9,200(a0)
    80000134:	0d053d03          	ld	s10,208(a0)
    80000138:	0d853d83          	ld	s11,216(a0)
    8000013c:	0e053e03          	ld	t3,224(a0)
    80000140:	0e853e83          	ld	t4,232(a0)
    80000144:	0f053f03          	ld	t5,240(a0)
    80000148:	0f853f83          	ld	t6,248(a0)
    8000014c:	05053503          	ld	a0,80(a0)
    80000150:	10200073          	sret

0000000080000154 <trap_entry>:
    80000154:	14011173          	csrrw	sp,sscratch,sp
    80000158:	00113423          	sd	ra,8(sp)
    8000015c:	00313c23          	sd	gp,24(sp)
    80000160:	02413023          	sd	tp,32(sp)
    80000164:	02513423          	sd	t0,40(sp)
    80000168:	02613823          	sd	t1,48(sp)
    8000016c:	02713c23          	sd	t2,56(sp)
    80000170:	04813023          	sd	s0,64(sp)
    80000174:	04913423          	sd	s1,72(sp)
    80000178:	04a13823          	sd	a0,80(sp)
    8000017c:	04b13c23          	sd	a1,88(sp)
    80000180:	06c13023          	sd	a2,96(sp)
    80000184:	06d13423          	sd	a3,104(sp)
    80000188:	06e13823          	sd	a4,112(sp)
    8000018c:	06f13c23          	sd	a5,120(sp)
    80000190:	09013023          	sd	a6,128(sp)
    80000194:	09113423          	sd	a7,136(sp)
    80000198:	09213823          	sd	s2,144(sp)
    8000019c:	09313c23          	sd	s3,152(sp)
    800001a0:	0b413023          	sd	s4,160(sp)
    800001a4:	0b513423          	sd	s5,168(sp)
    800001a8:	0b613823          	sd	s6,176(sp)
    800001ac:	0b713c23          	sd	s7,184(sp)
    800001b0:	0d813023          	sd	s8,192(sp)
    800001b4:	0d913423          	sd	s9,200(sp)
    800001b8:	0da13823          	sd	s10,208(sp)
    800001bc:	0db13c23          	sd	s11,216(sp)
    800001c0:	0fc13023          	sd	t3,224(sp)
    800001c4:	0fd13423          	sd	t4,232(sp)
    800001c8:	0fe13823          	sd	t5,240(sp)
    800001cc:	0ff13c23          	sd	t6,248(sp)
    800001d0:	140112f3          	csrrw	t0,sscratch,sp
    800001d4:	00513823          	sd	t0,16(sp)
    800001d8:	100022f3          	csrr	t0,sstatus
    800001dc:	10513023          	sd	t0,256(sp)
    800001e0:	141022f3          	csrr	t0,sepc
    800001e4:	10513423          	sd	t0,264(sp)
    800001e8:	143022f3          	csrr	t0,stval
    800001ec:	10513823          	sd	t0,272(sp)
    800001f0:	142022f3          	csrr	t0,scause
    800001f4:	10513c23          	sd	t0,280(sp)
    800001f8:	00010513          	mv	a0,sp
    800001fc:	3b40206f          	j	800025b0 <handle_trap>

Disassembly of section .text:

0000000080002000 <memcpy>:
    80002000:	00c5e7b3          	or	a5,a1,a2
    80002004:	00f567b3          	or	a5,a0,a5
    80002008:	0077f793          	andi	a5,a5,7
    8000200c:	00c506b3          	add	a3,a0,a2
    80002010:	02078463          	beqz	a5,80002038 <memcpy+0x38>
    80002014:	00c58633          	add	a2,a1,a2
    80002018:	00050793          	mv	a5,a0
    8000201c:	02d57e63          	bgeu	a0,a3,80002058 <memcpy+0x58>
    80002020:	0005c703          	lbu	a4,0(a1)
    80002024:	00158593          	addi	a1,a1,1
    80002028:	00178793          	addi	a5,a5,1
    8000202c:	fee78fa3          	sb	a4,-1(a5)
    80002030:	feb618e3          	bne	a2,a1,80002020 <memcpy+0x20>
    80002034:	00008067          	ret
    80002038:	fed57ee3          	bgeu	a0,a3,80002034 <memcpy+0x34>
    8000203c:	00050793          	mv	a5,a0
    80002040:	0005b703          	ld	a4,0(a1)
    80002044:	00878793          	addi	a5,a5,8
    80002048:	00858593          	addi	a1,a1,8
    8000204c:	fee7bc23          	sd	a4,-8(a5)
    80002050:	fed7e8e3          	bltu	a5,a3,80002040 <memcpy+0x40>
    80002054:	00008067          	ret
    80002058:	00008067          	ret

000000008000205c <memset>:
    8000205c:	ff010113          	addi	sp,sp,-16
    80002060:	00c567b3          	or	a5,a0,a2
    80002064:	00813023          	sd	s0,0(sp)
    80002068:	00113423          	sd	ra,8(sp)
    8000206c:	0077f793          	andi	a5,a5,7
    80002070:	00050413          	mv	s0,a0
    80002074:	00c50733          	add	a4,a0,a2
    80002078:	02078263          	beqz	a5,8000209c <memset+0x40>
    8000207c:	00e57663          	bgeu	a0,a4,80002088 <memset+0x2c>
    80002080:	0ff5f593          	zext.b	a1,a1
    80002084:	fd9ff0ef          	jal	8000205c <memset>
    80002088:	00813083          	ld	ra,8(sp)
    8000208c:	00040513          	mv	a0,s0
    80002090:	00013403          	ld	s0,0(sp)
    80002094:	01010113          	addi	sp,sp,16
    80002098:	00008067          	ret
    8000209c:	010107b7          	lui	a5,0x1010
    800020a0:	10178793          	addi	a5,a5,257 # 1010101 <_start-0x7efefeff>
    800020a4:	02079693          	slli	a3,a5,0x20
    800020a8:	0ff5f593          	zext.b	a1,a1
    800020ac:	00f686b3          	add	a3,a3,a5
    800020b0:	02d585b3          	mul	a1,a1,a3
    800020b4:	fce57ae3          	bgeu	a0,a4,80002088 <memset+0x2c>
    800020b8:	00050793          	mv	a5,a0
    800020bc:	00878793          	addi	a5,a5,8
    800020c0:	feb7bc23          	sd	a1,-8(a5)
    800020c4:	fee7ece3          	bltu	a5,a4,800020bc <memset+0x60>
    800020c8:	00813083          	ld	ra,8(sp)
    800020cc:	00040513          	mv	a0,s0
    800020d0:	00013403          	ld	s0,0(sp)
    800020d4:	01010113          	addi	sp,sp,16
    800020d8:	00008067          	ret

00000000800020dc <strlen>:
    800020dc:	00054783          	lbu	a5,0(a0)
    800020e0:	00078e63          	beqz	a5,800020fc <strlen+0x20>
    800020e4:	00050793          	mv	a5,a0
    800020e8:	0017c703          	lbu	a4,1(a5)
    800020ec:	00178793          	addi	a5,a5,1
    800020f0:	fe071ce3          	bnez	a4,800020e8 <strlen+0xc>
    800020f4:	40a78533          	sub	a0,a5,a0
    800020f8:	00008067          	ret
    800020fc:	00000513          	li	a0,0
    80002100:	00008067          	ret

0000000080002104 <strcmp>:
    80002104:	00054783          	lbu	a5,0(a0)
    80002108:	00150513          	addi	a0,a0,1
    8000210c:	00158593          	addi	a1,a1,1
    80002110:	fff5c703          	lbu	a4,-1(a1)
    80002114:	00078a63          	beqz	a5,80002128 <strcmp+0x24>
    80002118:	fee786e3          	beq	a5,a4,80002104 <strcmp>
    8000211c:	0007851b          	sext.w	a0,a5
    80002120:	40e5053b          	subw	a0,a0,a4
    80002124:	00008067          	ret
    80002128:	00000513          	li	a0,0
    8000212c:	ff5ff06f          	j	80002120 <strcmp+0x1c>

0000000080002130 <memcmp>:
    80002130:	00b567b3          	or	a5,a0,a1
    80002134:	0077f793          	andi	a5,a5,7
    80002138:	02079e63          	bnez	a5,80002174 <memcmp+0x44>
    8000213c:	ff867813          	andi	a6,a2,-8
    80002140:	01050833          	add	a6,a0,a6
    80002144:	03057863          	bgeu	a0,a6,80002174 <memcmp+0x44>
    80002148:	00050793          	mv	a5,a0
    8000214c:	0100006f          	j	8000215c <memcmp+0x2c>
    80002150:	00878793          	addi	a5,a5,8
    80002154:	00858593          	addi	a1,a1,8
    80002158:	0107f863          	bgeu	a5,a6,80002168 <memcmp+0x38>
    8000215c:	0007b683          	ld	a3,0(a5)
    80002160:	0005b703          	ld	a4,0(a1)
    80002164:	fee686e3          	beq	a3,a4,80002150 <memcmp+0x20>
    80002168:	40a78533          	sub	a0,a5,a0
    8000216c:	40a60633          	sub	a2,a2,a0
    80002170:	00078513          	mv	a0,a5
    80002174:	00c58633          	add	a2,a1,a2
    80002178:	0140006f          	j	8000218c <memcmp+0x5c>
    8000217c:	fff54783          	lbu	a5,-1(a0)
    80002180:	0005c703          	lbu	a4,0(a1)
    80002184:	00158593          	addi	a1,a1,1
    80002188:	00e79a63          	bne	a5,a4,8000219c <memcmp+0x6c>
    8000218c:	00150513          	addi	a0,a0,1
    80002190:	fec596e3          	bne	a1,a2,8000217c <memcmp+0x4c>
    80002194:	00000513          	li	a0,0
    80002198:	00008067          	ret
    8000219c:	40e7853b          	subw	a0,a5,a4
    800021a0:	00008067          	ret

00000000800021a4 <strcpy>:
    800021a4:	00050793          	mv	a5,a0
    800021a8:	0005c703          	lbu	a4,0(a1)
    800021ac:	00158593          	addi	a1,a1,1
    800021b0:	00178793          	addi	a5,a5,1
    800021b4:	fee78fa3          	sb	a4,-1(a5)
    800021b8:	fe0718e3          	bnez	a4,800021a8 <strcpy+0x4>
    800021bc:	00008067          	ret

00000000800021c0 <atol>:
    800021c0:	00054703          	lbu	a4,0(a0)
    800021c4:	02000693          	li	a3,32
    800021c8:	00050793          	mv	a5,a0
    800021cc:	00d71a63          	bne	a4,a3,800021e0 <atol+0x20>
    800021d0:	00070693          	mv	a3,a4
    800021d4:	0017c703          	lbu	a4,1(a5)
    800021d8:	00178793          	addi	a5,a5,1
    800021dc:	fed70ce3          	beq	a4,a3,800021d4 <atol+0x14>
    800021e0:	02d00693          	li	a3,45
    800021e4:	04d70e63          	beq	a4,a3,80002240 <atol+0x80>
    800021e8:	02b00693          	li	a3,43
    800021ec:	04d70063          	beq	a4,a3,8000222c <atol+0x6c>
    800021f0:	0007c683          	lbu	a3,0(a5)
    800021f4:	00000593          	li	a1,0
    800021f8:	04068c63          	beqz	a3,80002250 <atol+0x90>
    800021fc:	00000513          	li	a0,0
    80002200:	00178793          	addi	a5,a5,1
    80002204:	fd06861b          	addiw	a2,a3,-48
    80002208:	00251713          	slli	a4,a0,0x2
    8000220c:	0007c683          	lbu	a3,0(a5)
    80002210:	00a70733          	add	a4,a4,a0
    80002214:	00171713          	slli	a4,a4,0x1
    80002218:	00e60533          	add	a0,a2,a4
    8000221c:	fe0692e3          	bnez	a3,80002200 <atol+0x40>
    80002220:	02058a63          	beqz	a1,80002254 <atol+0x94>
    80002224:	40a00533          	neg	a0,a0
    80002228:	00008067          	ret
    8000222c:	0017c683          	lbu	a3,1(a5)
    80002230:	00178793          	addi	a5,a5,1
    80002234:	00068e63          	beqz	a3,80002250 <atol+0x90>
    80002238:	00000593          	li	a1,0
    8000223c:	fc1ff06f          	j	800021fc <atol+0x3c>
    80002240:	0017c683          	lbu	a3,1(a5)
    80002244:	00100593          	li	a1,1
    80002248:	00b787b3          	add	a5,a5,a1
    8000224c:	fa0698e3          	bnez	a3,800021fc <atol+0x3c>
    80002250:	00000513          	li	a0,0
    80002254:	00008067          	ret

0000000080002258 <cputstring>:
    80002258:	00054783          	lbu	a5,0(a0)
    8000225c:	04078063          	beqz	a5,8000229c <cputstring+0x44>
    80002260:	10100593          	li	a1,257
    80002264:	03059593          	slli	a1,a1,0x30
    80002268:	fffff717          	auipc	a4,0xfffff
    8000226c:	d9870713          	addi	a4,a4,-616 # 80001000 <tohost>
    80002270:	00073603          	ld	a2,0(a4)
    80002274:	00150513          	addi	a0,a0,1
    80002278:	00b7e6b3          	or	a3,a5,a1
    8000227c:	00060a63          	beqz	a2,80002290 <cputstring+0x38>
    80002280:	fffff797          	auipc	a5,0xfffff
    80002284:	dc07b023          	sd	zero,-576(a5) # 80001040 <fromhost>
    80002288:	00073783          	ld	a5,0(a4)
    8000228c:	fe079ae3          	bnez	a5,80002280 <cputstring+0x28>
    80002290:	00d73023          	sd	a3,0(a4)
    80002294:	00054783          	lbu	a5,0(a0)
    80002298:	fc079ce3          	bnez	a5,80002270 <cputstring+0x18>
    8000229c:	00008067          	ret

00000000800022a0 <terminate>:
    800022a0:	fffff717          	auipc	a4,0xfffff
    800022a4:	d6070713          	addi	a4,a4,-672 # 80001000 <tohost>
    800022a8:	00073783          	ld	a5,0(a4)
    800022ac:	00078a63          	beqz	a5,800022c0 <terminate+0x20>
    800022b0:	fffff797          	auipc	a5,0xfffff
    800022b4:	d807b823          	sd	zero,-624(a5) # 80001040 <fromhost>
    800022b8:	00073783          	ld	a5,0(a4)
    800022bc:	fe079ae3          	bnez	a5,800022b0 <terminate+0x10>
    800022c0:	00a73023          	sd	a0,0(a4)
    800022c4:	0000006f          	j	800022c4 <terminate+0x24>

00000000800022c8 <wtf>:
    800022c8:	ff010113          	addi	sp,sp,-16
    800022cc:	34900513          	li	a0,841
    800022d0:	00113423          	sd	ra,8(sp)
    800022d4:	fcdff0ef          	jal	800022a0 <terminate>

00000000800022d8 <printhex>:
    800022d8:	fe010113          	addi	sp,sp,-32
    800022dc:	00810613          	addi	a2,sp,8
    800022e0:	01710713          	addi	a4,sp,23
    800022e4:	00900813          	li	a6,9
    800022e8:	0080006f          	j	800022f0 <printhex+0x18>
    800022ec:	00078713          	mv	a4,a5
    800022f0:	00f57693          	andi	a3,a0,15
    800022f4:	00068593          	mv	a1,a3
    800022f8:	05700793          	li	a5,87
    800022fc:	00d86463          	bltu	a6,a3,80002304 <printhex+0x2c>
    80002300:	03000793          	li	a5,48
    80002304:	00b787bb          	addw	a5,a5,a1
    80002308:	00f70023          	sb	a5,0(a4)
    8000230c:	00455513          	srli	a0,a0,0x4
    80002310:	fff70793          	addi	a5,a4,-1
    80002314:	fce61ce3          	bne	a2,a4,800022ec <printhex+0x14>
    80002318:	00814783          	lbu	a5,8(sp)
    8000231c:	00010c23          	sb	zero,24(sp)
    80002320:	04078263          	beqz	a5,80002364 <printhex+0x8c>
    80002324:	10100513          	li	a0,257
    80002328:	00060693          	mv	a3,a2
    8000232c:	03051513          	slli	a0,a0,0x30
    80002330:	fffff717          	auipc	a4,0xfffff
    80002334:	cd070713          	addi	a4,a4,-816 # 80001000 <tohost>
    80002338:	00073583          	ld	a1,0(a4)
    8000233c:	00168693          	addi	a3,a3,1
    80002340:	00a7e633          	or	a2,a5,a0
    80002344:	00058a63          	beqz	a1,80002358 <printhex+0x80>
    80002348:	fffff797          	auipc	a5,0xfffff
    8000234c:	ce07bc23          	sd	zero,-776(a5) # 80001040 <fromhost>
    80002350:	00073783          	ld	a5,0(a4)
    80002354:	fe079ae3          	bnez	a5,80002348 <printhex+0x70>
    80002358:	0006c783          	lbu	a5,0(a3)
    8000235c:	00c73023          	sd	a2,0(a4)
    80002360:	fc079ce3          	bnez	a5,80002338 <printhex+0x60>
    80002364:	02010113          	addi	sp,sp,32
    80002368:	00008067          	ret

000000008000236c <handle_fault>:
    8000236c:	fb010113          	addi	sp,sp,-80
    80002370:	00100793          	li	a5,1
    80002374:	fffff737          	lui	a4,0xfffff
    80002378:	00f12223          	sw	a5,4(sp)
    8000237c:	04113423          	sd	ra,72(sp)
    80002380:	00013423          	sd	zero,8(sp)
    80002384:	00e506b3          	add	a3,a0,a4
    80002388:	0003e7b7          	lui	a5,0x3e
    8000238c:	04813023          	sd	s0,64(sp)
    80002390:	02913c23          	sd	s1,56(sp)
    80002394:	1af6fa63          	bgeu	a3,a5,80002548 <handle_fault+0x1dc>
    80002398:	03413023          	sd	s4,32(sp)
    8000239c:	00c55a13          	srli	s4,a0,0xc
    800023a0:	600a0493          	addi	s1,s4,1536
    800023a4:	03313423          	sd	s3,40(sp)
    800023a8:	00349793          	slli	a5,s1,0x3
    800023ac:	00005997          	auipc	s3,0x5
    800023b0:	c5498993          	addi	s3,s3,-940 # 80007000 <pt>
    800023b4:	00f987b3          	add	a5,s3,a5
    800023b8:	0007b783          	ld	a5,0(a5) # 3e000 <_start-0x7ffc2000>
    800023bc:	00e57433          	and	s0,a0,a4
    800023c0:	10079a63          	bnez	a5,800024d4 <handle_fault+0x168>
    800023c4:	00009717          	auipc	a4,0x9
    800023c8:	c4470713          	addi	a4,a4,-956 # 8000b008 <freelist_head>
    800023cc:	01513c23          	sd	s5,24(sp)
    800023d0:	00073a83          	ld	s5,0(a4)
    800023d4:	03213823          	sd	s2,48(sp)
    800023d8:	1c0a8263          	beqz	s5,8000259c <handle_fault+0x230>
    800023dc:	008ab783          	ld	a5,8(s5)
    800023e0:	00009697          	auipc	a3,0x9
    800023e4:	c206b683          	ld	a3,-992(a3) # 8000b000 <freelist_tail>
    800023e8:	00f73023          	sd	a5,0(a4)
    800023ec:	14d78863          	beq	a5,a3,8000253c <handle_fault+0x1d0>
    800023f0:	00410613          	addi	a2,sp,4
    800023f4:	00810593          	addi	a1,sp,8
    800023f8:	00040513          	mv	a0,s0
    800023fc:	000ab903          	ld	s2,0(s5)
    80002400:	6a0000ef          	jal	80002aa0 <pf_filter>
    80002404:	10051c63          	bnez	a0,8000251c <handle_fault+0x1b0>
    80002408:	00c95713          	srli	a4,s2,0xc
    8000240c:	00a71713          	slli	a4,a4,0xa
    80002410:	01f76713          	ori	a4,a4,31
    80002414:	00349613          	slli	a2,s1,0x3
    80002418:	00c98633          	add	a2,s3,a2
    8000241c:	0c076793          	ori	a5,a4,192
    80002420:	00f63023          	sd	a5,0(a2)
    80002424:	12040073          	sfence.vma	s0
    80002428:	00004617          	auipc	a2,0x4
    8000242c:	bd860613          	addi	a2,a2,-1064 # 80006000 <user_mapping>
    80002430:	004a1693          	slli	a3,s4,0x4
    80002434:	00d606b3          	add	a3,a2,a3
    80002438:	0006b783          	ld	a5,0(a3)
    8000243c:	14079663          	bnez	a5,80002588 <handle_fault+0x21c>
    80002440:	000ab603          	ld	a2,0(s5)
    80002444:	000407b7          	lui	a5,0x40
    80002448:	00c6b023          	sd	a2,0(a3)
    8000244c:	008ab603          	ld	a2,8(s5)
    80002450:	00c6b423          	sd	a2,8(a3)
    80002454:	1007a5f3          	csrrs	a1,sstatus,a5
    80002458:	ffe007b7          	lui	a5,0xffe00
    8000245c:	00f407b3          	add	a5,s0,a5
    80002460:	00001637          	lui	a2,0x1
    80002464:	00c78633          	add	a2,a5,a2
    80002468:	00040693          	mv	a3,s0
    8000246c:	0007b303          	ld	t1,0(a5) # ffffffffffe00000 <freelist_head+0xffffffff7fdf4ff8>
    80002470:	0087b883          	ld	a7,8(a5)
    80002474:	0107b803          	ld	a6,16(a5)
    80002478:	0187b503          	ld	a0,24(a5)
    8000247c:	0066b023          	sd	t1,0(a3)
    80002480:	0116b423          	sd	a7,8(a3)
    80002484:	0106b823          	sd	a6,16(a3)
    80002488:	00a6bc23          	sd	a0,24(a3)
    8000248c:	02078793          	addi	a5,a5,32
    80002490:	02068693          	addi	a3,a3,32
    80002494:	fcc79ce3          	bne	a5,a2,8000246c <handle_fault+0x100>
    80002498:	10059073          	csrw	sstatus,a1
    8000249c:	00349493          	slli	s1,s1,0x3
    800024a0:	009987b3          	add	a5,s3,s1
    800024a4:	00e7b023          	sd	a4,0(a5)
    800024a8:	12040073          	sfence.vma	s0
    800024ac:	0000100f          	fence.i
    800024b0:	04013403          	ld	s0,64(sp)
    800024b4:	04813083          	ld	ra,72(sp)
    800024b8:	03013903          	ld	s2,48(sp)
    800024bc:	01813a83          	ld	s5,24(sp)
    800024c0:	03813483          	ld	s1,56(sp)
    800024c4:	02813983          	ld	s3,40(sp)
    800024c8:	02013a03          	ld	s4,32(sp)
    800024cc:	05010113          	addi	sp,sp,80
    800024d0:	00008067          	ret
    800024d4:	0407f713          	andi	a4,a5,64
    800024d8:	04070e63          	beqz	a4,80002534 <handle_fault+0x1c8>
    800024dc:	0807f713          	andi	a4,a5,128
    800024e0:	08071663          	bnez	a4,8000256c <handle_fault+0x200>
    800024e4:	00f00713          	li	a4,15
    800024e8:	0807e793          	ori	a5,a5,128
    800024ec:	08e59063          	bne	a1,a4,8000256c <handle_fault+0x200>
    800024f0:	00349493          	slli	s1,s1,0x3
    800024f4:	009984b3          	add	s1,s3,s1
    800024f8:	00f4b023          	sd	a5,0(s1)
    800024fc:	12040073          	sfence.vma	s0
    80002500:	04013403          	ld	s0,64(sp)
    80002504:	04813083          	ld	ra,72(sp)
    80002508:	03813483          	ld	s1,56(sp)
    8000250c:	02813983          	ld	s3,40(sp)
    80002510:	02013a03          	ld	s4,32(sp)
    80002514:	05010113          	addi	sp,sp,80
    80002518:	00008067          	ret
    8000251c:	000ab703          	ld	a4,0(s5)
    80002520:	00813783          	ld	a5,8(sp)
    80002524:	00c75713          	srli	a4,a4,0xc
    80002528:	00a71713          	slli	a4,a4,0xa
    8000252c:	00f76733          	or	a4,a4,a5
    80002530:	ee5ff06f          	j	80002414 <handle_fault+0xa8>
    80002534:	0407e793          	ori	a5,a5,64
    80002538:	fb9ff06f          	j	800024f0 <handle_fault+0x184>
    8000253c:	00009797          	auipc	a5,0x9
    80002540:	ac07b223          	sd	zero,-1340(a5) # 8000b000 <freelist_tail>
    80002544:	eadff06f          	j	800023f0 <handle_fault+0x84>
    80002548:	00002517          	auipc	a0,0x2
    8000254c:	1f850513          	addi	a0,a0,504 # 80004740 <pass+0x10>
    80002550:	03213823          	sd	s2,48(sp)
    80002554:	03313423          	sd	s3,40(sp)
    80002558:	03413023          	sd	s4,32(sp)
    8000255c:	01513c23          	sd	s5,24(sp)
    80002560:	cf9ff0ef          	jal	80002258 <cputstring>
    80002564:	00300513          	li	a0,3
    80002568:	d39ff0ef          	jal	800022a0 <terminate>
    8000256c:	00002517          	auipc	a0,0x2
    80002570:	21c50513          	addi	a0,a0,540 # 80004788 <pass+0x58>
    80002574:	03213823          	sd	s2,48(sp)
    80002578:	01513c23          	sd	s5,24(sp)
    8000257c:	cddff0ef          	jal	80002258 <cputstring>
    80002580:	00300513          	li	a0,3
    80002584:	d1dff0ef          	jal	800022a0 <terminate>
    80002588:	00002517          	auipc	a0,0x2
    8000258c:	26050513          	addi	a0,a0,608 # 800047e8 <pass+0xb8>
    80002590:	cc9ff0ef          	jal	80002258 <cputstring>
    80002594:	00300513          	li	a0,3
    80002598:	d09ff0ef          	jal	800022a0 <terminate>
    8000259c:	00002517          	auipc	a0,0x2
    800025a0:	23450513          	addi	a0,a0,564 # 800047d0 <pass+0xa0>
    800025a4:	cb5ff0ef          	jal	80002258 <cputstring>
    800025a8:	00300513          	li	a0,3
    800025ac:	cf5ff0ef          	jal	800022a0 <terminate>

00000000800025b0 <handle_trap>:
    800025b0:	f8010113          	addi	sp,sp,-128
    800025b4:	06813823          	sd	s0,112(sp)
    800025b8:	06113c23          	sd	ra,120(sp)
    800025bc:	00050413          	mv	s0,a0
    800025c0:	4d8000ef          	jal	80002a98 <trap_filter>
    800025c4:	0e051263          	bnez	a0,800026a8 <handle_trap+0xf8>
    800025c8:	11843583          	ld	a1,280(s0)
    800025cc:	00800793          	li	a5,8
    800025d0:	12f58663          	beq	a1,a5,800026fc <handle_trap+0x14c>
    800025d4:	00200793          	li	a5,2
    800025d8:	02f58a63          	beq	a1,a5,8000260c <handle_trap+0x5c>
    800025dc:	ff458793          	addi	a5,a1,-12
    800025e0:	00100713          	li	a4,1
    800025e4:	00f77663          	bgeu	a4,a5,800025f0 <handle_trap+0x40>
    800025e8:	00f00793          	li	a5,15
    800025ec:	24f59863          	bne	a1,a5,8000283c <handle_trap+0x28c>
    800025f0:	11043503          	ld	a0,272(s0)
    800025f4:	d79ff0ef          	jal	8000236c <handle_fault>
    800025f8:	00040513          	mv	a0,s0
    800025fc:	07013403          	ld	s0,112(sp)
    80002600:	07813083          	ld	ra,120(sp)
    80002604:	08010113          	addi	sp,sp,128
    80002608:	ac5fd06f          	j	800000cc <pop_tf>
    8000260c:	10843783          	ld	a5,264(s0)
    80002610:	0037f713          	andi	a4,a5,3
    80002614:	0a071463          	bnez	a4,800026bc <handle_trap+0x10c>
    80002618:	0007a703          	lw	a4,0(a5)
    8000261c:	008007ef          	jal	a5,80002624 <handle_trap+0x74>
    80002620:	00301073          	fscsr	zero
    80002624:	0007a783          	lw	a5,0(a5)
    80002628:	06913423          	sd	s1,104(sp)
    8000262c:	07213023          	sd	s2,96(sp)
    80002630:	05313c23          	sd	s3,88(sp)
    80002634:	05413823          	sd	s4,80(sp)
    80002638:	05513423          	sd	s5,72(sp)
    8000263c:	05613023          	sd	s6,64(sp)
    80002640:	03713c23          	sd	s7,56(sp)
    80002644:	03813823          	sd	s8,48(sp)
    80002648:	03913423          	sd	s9,40(sp)
    8000264c:	03a13023          	sd	s10,32(sp)
    80002650:	01b13c23          	sd	s11,24(sp)
    80002654:	06f70063          	beq	a4,a5,800026b4 <handle_trap+0x104>
    80002658:	10100513          	li	a0,257
    8000265c:	03051513          	slli	a0,a0,0x30
    80002660:	04100793          	li	a5,65
    80002664:	00002697          	auipc	a3,0x2
    80002668:	1c468693          	addi	a3,a3,452 # 80004828 <pass+0xf8>
    8000266c:	fffff717          	auipc	a4,0xfffff
    80002670:	99470713          	addi	a4,a4,-1644 # 80001000 <tohost>
    80002674:	00073583          	ld	a1,0(a4)
    80002678:	00168693          	addi	a3,a3,1
    8000267c:	00a7e633          	or	a2,a5,a0
    80002680:	00058a63          	beqz	a1,80002694 <handle_trap+0xe4>
    80002684:	fffff797          	auipc	a5,0xfffff
    80002688:	9a07be23          	sd	zero,-1604(a5) # 80001040 <fromhost>
    8000268c:	00073783          	ld	a5,0(a4)
    80002690:	fe079ae3          	bnez	a5,80002684 <handle_trap+0xd4>
    80002694:	0006c783          	lbu	a5,0(a3)
    80002698:	00c73023          	sd	a2,0(a4)
    8000269c:	fc079ce3          	bnez	a5,80002674 <handle_trap+0xc4>
    800026a0:	00300513          	li	a0,3
    800026a4:	bfdff0ef          	jal	800022a0 <terminate>
    800026a8:	00040513          	mv	a0,s0
    800026ac:	a21fd0ef          	jal	800000cc <pop_tf>
    800026b0:	f19ff06f          	j	800025c8 <handle_trap+0x18>
    800026b4:	00100513          	li	a0,1
    800026b8:	be9ff0ef          	jal	800022a0 <terminate>
    800026bc:	00002517          	auipc	a0,0x2
    800026c0:	20c50513          	addi	a0,a0,524 # 800048c8 <pass+0x198>
    800026c4:	06913423          	sd	s1,104(sp)
    800026c8:	07213023          	sd	s2,96(sp)
    800026cc:	05313c23          	sd	s3,88(sp)
    800026d0:	05413823          	sd	s4,80(sp)
    800026d4:	05513423          	sd	s5,72(sp)
    800026d8:	05613023          	sd	s6,64(sp)
    800026dc:	03713c23          	sd	s7,56(sp)
    800026e0:	03813823          	sd	s8,48(sp)
    800026e4:	03913423          	sd	s9,40(sp)
    800026e8:	03a13023          	sd	s10,32(sp)
    800026ec:	01b13c23          	sd	s11,24(sp)
    800026f0:	b69ff0ef          	jal	80002258 <cputstring>
    800026f4:	00300513          	li	a0,3
    800026f8:	ba9ff0ef          	jal	800022a0 <terminate>
    800026fc:	05042783          	lw	a5,80(s0)
    80002700:	00001437          	lui	s0,0x1
    80002704:	05313c23          	sd	s3,88(sp)
    80002708:	05413823          	sd	s4,80(sp)
    8000270c:	05513423          	sd	s5,72(sp)
    80002710:	05613023          	sd	s6,64(sp)
    80002714:	03713c23          	sd	s7,56(sp)
    80002718:	03813823          	sd	s8,48(sp)
    8000271c:	03913423          	sd	s9,40(sp)
    80002720:	03a13023          	sd	s10,32(sp)
    80002724:	06913423          	sd	s1,104(sp)
    80002728:	07213023          	sd	s2,96(sp)
    8000272c:	01b13c23          	sd	s11,24(sp)
    80002730:	00f13023          	sd	a5,0(sp)
    80002734:	00040a93          	mv	s5,s0
    80002738:	00004a17          	auipc	s4,0x4
    8000273c:	8c8a0a13          	addi	s4,s4,-1848 # 80006000 <user_mapping>
    80002740:	00005d17          	auipc	s10,0x5
    80002744:	8c0d0d13          	addi	s10,s10,-1856 # 80007000 <pt>
    80002748:	00040cb7          	lui	s9,0x40
    8000274c:	ffe00c37          	lui	s8,0xffe00
    80002750:	00009997          	auipc	s3,0x9
    80002754:	8b098993          	addi	s3,s3,-1872 # 8000b000 <freelist_tail>
    80002758:	00009b97          	auipc	s7,0x9
    8000275c:	8b0b8b93          	addi	s7,s7,-1872 # 8000b008 <freelist_head>
    80002760:	0003fb37          	lui	s6,0x3f
    80002764:	00c45793          	srli	a5,s0,0xc
    80002768:	00479493          	slli	s1,a5,0x4
    8000276c:	009a0733          	add	a4,s4,s1
    80002770:	00073703          	ld	a4,0(a4)
    80002774:	08070c63          	beqz	a4,8000280c <handle_trap+0x25c>
    80002778:	60078793          	addi	a5,a5,1536
    8000277c:	00379793          	slli	a5,a5,0x3
    80002780:	00fd07b3          	add	a5,s10,a5
    80002784:	0007b903          	ld	s2,0(a5)
    80002788:	04097793          	andi	a5,s2,64
    8000278c:	08078e63          	beqz	a5,80002828 <handle_trap+0x278>
    80002790:	100cadf3          	csrrs	s11,sstatus,s9
    80002794:	018407b3          	add	a5,s0,s8
    80002798:	00078593          	mv	a1,a5
    8000279c:	00040513          	mv	a0,s0
    800027a0:	00001637          	lui	a2,0x1
    800027a4:	00f13423          	sd	a5,8(sp)
    800027a8:	989ff0ef          	jal	80002130 <memcmp>
    800027ac:	04050263          	beqz	a0,800027f0 <handle_trap+0x240>
    800027b0:	08097913          	andi	s2,s2,128
    800027b4:	00813783          	ld	a5,8(sp)
    800027b8:	0c090063          	beqz	s2,80002878 <handle_trap+0x2c8>
    800027bc:	00040713          	mv	a4,s0
    800027c0:	015406b3          	add	a3,s0,s5
    800027c4:	00073803          	ld	a6,0(a4)
    800027c8:	00873503          	ld	a0,8(a4)
    800027cc:	01073583          	ld	a1,16(a4)
    800027d0:	01873603          	ld	a2,24(a4)
    800027d4:	0107b023          	sd	a6,0(a5)
    800027d8:	00a7b423          	sd	a0,8(a5)
    800027dc:	00b7b823          	sd	a1,16(a5)
    800027e0:	00c7bc23          	sd	a2,24(a5)
    800027e4:	02070713          	addi	a4,a4,32
    800027e8:	02078793          	addi	a5,a5,32
    800027ec:	fcd71ce3          	bne	a4,a3,800027c4 <handle_trap+0x214>
    800027f0:	009a07b3          	add	a5,s4,s1
    800027f4:	100d9073          	csrw	sstatus,s11
    800027f8:	0009b703          	ld	a4,0(s3)
    800027fc:	0007b023          	sd	zero,0(a5)
    80002800:	00070e63          	beqz	a4,8000281c <handle_trap+0x26c>
    80002804:	00f73423          	sd	a5,8(a4)
    80002808:	00f9b023          	sd	a5,0(s3)
    8000280c:	01540433          	add	s0,s0,s5
    80002810:	f5641ae3          	bne	s0,s6,80002764 <handle_trap+0x1b4>
    80002814:	00013503          	ld	a0,0(sp)
    80002818:	a89ff0ef          	jal	800022a0 <terminate>
    8000281c:	00f9b023          	sd	a5,0(s3)
    80002820:	00fbb023          	sd	a5,0(s7)
    80002824:	fe9ff06f          	j	8000280c <handle_trap+0x25c>
    80002828:	00002517          	auipc	a0,0x2
    8000282c:	03050513          	addi	a0,a0,48 # 80004858 <pass+0x128>
    80002830:	a29ff0ef          	jal	80002258 <cputstring>
    80002834:	00300513          	li	a0,3
    80002838:	a69ff0ef          	jal	800022a0 <terminate>
    8000283c:	00002517          	auipc	a0,0x2
    80002840:	0b450513          	addi	a0,a0,180 # 800048f0 <pass+0x1c0>
    80002844:	06913423          	sd	s1,104(sp)
    80002848:	07213023          	sd	s2,96(sp)
    8000284c:	05313c23          	sd	s3,88(sp)
    80002850:	05413823          	sd	s4,80(sp)
    80002854:	05513423          	sd	s5,72(sp)
    80002858:	05613023          	sd	s6,64(sp)
    8000285c:	03713c23          	sd	s7,56(sp)
    80002860:	03813823          	sd	s8,48(sp)
    80002864:	03913423          	sd	s9,40(sp)
    80002868:	03a13023          	sd	s10,32(sp)
    8000286c:	01b13c23          	sd	s11,24(sp)
    80002870:	9e9ff0ef          	jal	80002258 <cputstring>
    80002874:	e2dff06f          	j	800026a0 <handle_trap+0xf0>
    80002878:	00002517          	auipc	a0,0x2
    8000287c:	01850513          	addi	a0,a0,24 # 80004890 <pass+0x160>
    80002880:	9d9ff0ef          	jal	80002258 <cputstring>
    80002884:	00300513          	li	a0,3
    80002888:	a19ff0ef          	jal	800022a0 <terminate>

000000008000288c <vm_boot>:
    8000288c:	f14027f3          	csrr	a5,mhartid
    80002890:	18079e63          	bnez	a5,80002a2c <vm_boot+0x1a0>
    80002894:	00005817          	auipc	a6,0x5
    80002898:	76c80813          	addi	a6,a6,1900 # 80008000 <pt+0x1000>
    8000289c:	00007897          	auipc	a7,0x7
    800028a0:	76488893          	addi	a7,a7,1892 # 8000a000 <pt+0x3000>
    800028a4:	00006797          	auipc	a5,0x6
    800028a8:	75c78793          	addi	a5,a5,1884 # 80009000 <pt+0x2000>
    800028ac:	ed010113          	addi	sp,sp,-304
    800028b0:	00c8d693          	srli	a3,a7,0xc
    800028b4:	00c85713          	srli	a4,a6,0xc
    800028b8:	00c7d793          	srli	a5,a5,0xc
    800028bc:	12813023          	sd	s0,288(sp)
    800028c0:	00004317          	auipc	t1,0x4
    800028c4:	74030313          	addi	t1,t1,1856 # 80007000 <pt>
    800028c8:	00050413          	mv	s0,a0
    800028cc:	fff00613          	li	a2,-1
    800028d0:	00a79793          	slli	a5,a5,0xa
    800028d4:	00a69693          	slli	a3,a3,0xa
    800028d8:	00a71713          	slli	a4,a4,0xa
    800028dc:	20000537          	lui	a0,0x20000
    800028e0:	12113423          	sd	ra,296(sp)
    800028e4:	0017e793          	ori	a5,a5,1
    800028e8:	0016e693          	ori	a3,a3,1
    800028ec:	00176713          	ori	a4,a4,1
    800028f0:	00c35593          	srli	a1,t1,0xc
    800028f4:	03f61e13          	slli	t3,a2,0x3f
    800028f8:	0cf50513          	addi	a0,a0,207 # 200000cf <_start-0x5fffff31>
    800028fc:	fef83c23          	sd	a5,-8(a6)
    80002900:	00d83023          	sd	a3,0(a6)
    80002904:	00e33023          	sd	a4,0(t1)
    80002908:	01c5e7b3          	or	a5,a1,t3
    8000290c:	fea8bc23          	sd	a0,-8(a7)
    80002910:	18079073          	csrw	satp,a5
    80002914:	18002773          	csrr	a4,satp
    80002918:	16e79463          	bne	a5,a4,80002a80 <vm_boot+0x1f4>
    8000291c:	00b65613          	srli	a2,a2,0xb
    80002920:	01f00793          	li	a5,31
    80002924:	00000297          	auipc	t0,0x0
    80002928:	01428293          	addi	t0,t0,20 # 80002938 <vm_boot+0xac>
    8000292c:	305292f3          	csrrw	t0,mtvec,t0
    80002930:	3b061073          	csrw	pmpaddr0,a2
    80002934:	3a079073          	csrw	pmpcfg0,a5
    80002938:	30529073          	csrw	mtvec,t0
    8000293c:	bff00693          	li	a3,-1025
    80002940:	01569693          	slli	a3,a3,0x15
    80002944:	ffffe797          	auipc	a5,0xffffe
    80002948:	81078793          	addi	a5,a5,-2032 # 80000154 <trap_entry>
    8000294c:	00d787b3          	add	a5,a5,a3
    80002950:	10579073          	csrw	stvec,a5
    80002954:	340027f3          	csrr	a5,mscratch
    80002958:	00d787b3          	add	a5,a5,a3
    8000295c:	14079073          	csrw	sscratch,a5
    80002960:	0000b7b7          	lui	a5,0xb
    80002964:	1007879b          	addiw	a5,a5,256 # b100 <_start-0x7fff4f00>
    80002968:	30279073          	csrw	medeleg,a5
    8000296c:	0001e7b7          	lui	a5,0x1e
    80002970:	6007879b          	addiw	a5,a5,1536 # 1e600 <_start-0x7ffe1a00>
    80002974:	30079073          	csrw	mstatus,a5
    80002978:	30405073          	csrwi	mie,0
    8000297c:	00004717          	auipc	a4,0x4
    80002980:	a7470713          	addi	a4,a4,-1420 # 800063f0 <freelist_nodes>
    80002984:	3e068793          	addi	a5,a3,992
    80002988:	bff00813          	li	a6,-1025
    8000298c:	00d706b3          	add	a3,a4,a3
    80002990:	00f707b3          	add	a5,a4,a5
    80002994:	01581813          	slli	a6,a6,0x15
    80002998:	000808b7          	lui	a7,0x80
    8000299c:	00008617          	auipc	a2,0x8
    800029a0:	66d63623          	sd	a3,1644(a2) # 8000b008 <freelist_head>
    800029a4:	01080813          	addi	a6,a6,16
    800029a8:	00008697          	auipc	a3,0x8
    800029ac:	64f6bc23          	sd	a5,1624(a3) # 8000b000 <freelist_tail>
    800029b0:	03f88893          	addi	a7,a7,63 # 8003f <_start-0x7ff7ffc1>
    800029b4:	00004317          	auipc	t1,0x4
    800029b8:	e2c30313          	addi	t1,t1,-468 # 800067e0 <freelist_nodes+0x3f0>
    800029bc:	00e00793          	li	a5,14
    800029c0:	0017d613          	srli	a2,a5,0x1
    800029c4:	00f646b3          	xor	a3,a2,a5
    800029c8:	011787b3          	add	a5,a5,a7
    800029cc:	00c79793          	slli	a5,a5,0xc
    800029d0:	010705b3          	add	a1,a4,a6
    800029d4:	00569693          	slli	a3,a3,0x5
    800029d8:	00f73023          	sd	a5,0(a4)
    800029dc:	0206f693          	andi	a3,a3,32
    800029e0:	00b73423          	sd	a1,8(a4)
    800029e4:	01070713          	addi	a4,a4,16
    800029e8:	00d667b3          	or	a5,a2,a3
    800029ec:	fce31ae3          	bne	t1,a4,800029c0 <vm_boot+0x134>
    800029f0:	00010513          	mv	a0,sp
    800029f4:	12000613          	li	a2,288
    800029f8:	00000593          	li	a1,0
    800029fc:	00004797          	auipc	a5,0x4
    80002a00:	dc07be23          	sd	zero,-548(a5) # 800067d8 <freelist_nodes+0x3e8>
    80002a04:	e58ff0ef          	jal	8000205c <memset>
    80002a08:	800007b7          	lui	a5,0x80000
    80002a0c:	00f40433          	add	s0,s0,a5
    80002a10:	00010513          	mv	a0,sp
    80002a14:	10813423          	sd	s0,264(sp)
    80002a18:	eb4fd0ef          	jal	800000cc <pop_tf>
    80002a1c:	12813083          	ld	ra,296(sp)
    80002a20:	12013403          	ld	s0,288(sp)
    80002a24:	13010113          	addi	sp,sp,304
    80002a28:	00008067          	ret
    80002a2c:	00100613          	li	a2,1
    80002a30:	00060693          	mv	a3,a2
    80002a34:	006367b7          	lui	a5,0x636
    80002a38:	000805b7          	lui	a1,0x80
    80002a3c:	3ee78793          	addi	a5,a5,1006 # 6363ee <_start-0x7f9c9c12>
    80002a40:	ffc58593          	addi	a1,a1,-4 # 7fffc <_start-0x7ff80004>
    80002a44:	01f61613          	slli	a2,a2,0x1f
    80002a48:	03e69693          	slli	a3,a3,0x3e
    80002a4c:	01c0006f          	j	80002a68 <vm_boot+0x1dc>
    80002a50:	0007202f          	amoadd.w	zero,zero,(a4)
    80002a54:	0017d713          	srli	a4,a5,0x1
    80002a58:	00e7c7b3          	xor	a5,a5,a4
    80002a5c:	03e79793          	slli	a5,a5,0x3e
    80002a60:	00d7f7b3          	and	a5,a5,a3
    80002a64:	00e7e7b3          	or	a5,a5,a4
    80002a68:	00b7f733          	and	a4,a5,a1
    80002a6c:	0017f513          	andi	a0,a5,1
    80002a70:	00c70733          	add	a4,a4,a2
    80002a74:	fc051ee3          	bnez	a0,80002a50 <vm_boot+0x1c4>
    80002a78:	00072003          	lw	zero,0(a4)
    80002a7c:	fd9ff06f          	j	80002a54 <vm_boot+0x1c8>
    80002a80:	00002517          	auipc	a0,0x2
    80002a84:	ea050513          	addi	a0,a0,-352 # 80004920 <pass+0x1f0>
    80002a88:	fd0ff0ef          	jal	80002258 <cputstring>
    80002a8c:	00300513          	li	a0,3
    80002a90:	811ff0ef          	jal	800022a0 <terminate>

0000000080002a94 <extra_boot>:
    80002a94:	00008067          	ret

0000000080002a98 <trap_filter>:
    80002a98:	00000513          	li	a0,0
    80002a9c:	00008067          	ret

0000000080002aa0 <pf_filter>:
    80002aa0:	00000513          	li	a0,0
    80002aa4:	00008067          	ret

0000000080002aa8 <userstart>:
    80002aa8:	00002417          	auipc	s0,0x2
    80002aac:	55840413          	addi	s0,s0,1368 # 80005000 <begin_signature>
    80002ab0:	00100193          	li	gp,1
    80002ab4:	20100313          	li	t1,513
    80002ab8:	00141383          	lh	t2,1(s0)
    80002abc:	00730463          	beq	t1,t2,80002ac4 <userstart+0x1c>
    80002ac0:	4610106f          	j	80004720 <fail>
    80002ac4:	00200193          	li	gp,2
    80002ac8:	20100313          	li	t1,513
    80002acc:	00145383          	lhu	t2,1(s0)
    80002ad0:	00730463          	beq	t1,t2,80002ad8 <userstart+0x30>
    80002ad4:	44d0106f          	j	80004720 <fail>
    80002ad8:	00300193          	li	gp,3
    80002adc:	04030337          	lui	t1,0x4030
    80002ae0:	2013031b          	addiw	t1,t1,513 # 4030201 <_start-0x7bfcfdff>
    80002ae4:	00142383          	lw	t2,1(s0)
    80002ae8:	00730463          	beq	t1,t2,80002af0 <userstart+0x48>
    80002aec:	4350106f          	j	80004720 <fail>
    80002af0:	00400193          	li	gp,4
    80002af4:	05040337          	lui	t1,0x5040
    80002af8:	3023031b          	addiw	t1,t1,770 # 5040302 <_start-0x7afbfcfe>
    80002afc:	00242383          	lw	t2,2(s0)
    80002b00:	00730463          	beq	t1,t2,80002b08 <userstart+0x60>
    80002b04:	41d0106f          	j	80004720 <fail>
    80002b08:	00500193          	li	gp,5
    80002b0c:	06050337          	lui	t1,0x6050
    80002b10:	4033031b          	addiw	t1,t1,1027 # 6050403 <_start-0x79fafbfd>
    80002b14:	00342383          	lw	t2,3(s0)
    80002b18:	00730463          	beq	t1,t2,80002b20 <userstart+0x78>
    80002b1c:	4050106f          	j	80004720 <fail>
    80002b20:	00600193          	li	gp,6
    80002b24:	04030337          	lui	t1,0x4030
    80002b28:	2013031b          	addiw	t1,t1,513 # 4030201 <_start-0x7bfcfdff>
    80002b2c:	00146383          	lwu	t2,1(s0)
    80002b30:	00730463          	beq	t1,t2,80002b38 <userstart+0x90>
    80002b34:	3ed0106f          	j	80004720 <fail>
    80002b38:	00700193          	li	gp,7
    80002b3c:	05040337          	lui	t1,0x5040
    80002b40:	3023031b          	addiw	t1,t1,770 # 5040302 <_start-0x7afbfcfe>
    80002b44:	00246383          	lwu	t2,2(s0)
    80002b48:	00730463          	beq	t1,t2,80002b50 <userstart+0xa8>
    80002b4c:	3d50106f          	j	80004720 <fail>
    80002b50:	00800193          	li	gp,8
    80002b54:	06050337          	lui	t1,0x6050
    80002b58:	4033031b          	addiw	t1,t1,1027 # 6050403 <_start-0x79fafbfd>
    80002b5c:	00346383          	lwu	t2,3(s0)
    80002b60:	00730463          	beq	t1,t2,80002b68 <userstart+0xc0>
    80002b64:	3bd0106f          	j	80004720 <fail>
    80002b68:	00900193          	li	gp,9
    80002b6c:	08070337          	lui	t1,0x8070
    80002b70:	6053031b          	addiw	t1,t1,1541 # 8070605 <_start-0x77f8f9fb>
    80002b74:	01031313          	slli	t1,t1,0x10
    80002b78:	40330313          	addi	t1,t1,1027
    80002b7c:	01031313          	slli	t1,t1,0x10
    80002b80:	20130313          	addi	t1,t1,513
    80002b84:	00143383          	ld	t2,1(s0)
    80002b88:	00730463          	beq	t1,t2,80002b90 <userstart+0xe8>
    80002b8c:	3950106f          	j	80004720 <fail>
    80002b90:	00a00193          	li	gp,10
    80002b94:	04840337          	lui	t1,0x4840
    80002b98:	3833031b          	addiw	t1,t1,899 # 4840383 <_start-0x7b7bfc7d>
    80002b9c:	00f31313          	slli	t1,t1,0xf
    80002ba0:	14130313          	addi	t1,t1,321
    80002ba4:	01231313          	slli	t1,t1,0x12
    80002ba8:	30230313          	addi	t1,t1,770
    80002bac:	00243383          	ld	t2,2(s0)
    80002bb0:	00730463          	beq	t1,t2,80002bb8 <userstart+0x110>
    80002bb4:	36d0106f          	j	80004720 <fail>
    80002bb8:	00b00193          	li	gp,11
    80002bbc:	0a091337          	lui	t1,0xa091
    80002bc0:	8073031b          	addiw	t1,t1,-2041 # a090807 <_start-0x75f6f7f9>
    80002bc4:	01031313          	slli	t1,t1,0x10
    80002bc8:	60530313          	addi	t1,t1,1541
    80002bcc:	01031313          	slli	t1,t1,0x10
    80002bd0:	40330313          	addi	t1,t1,1027
    80002bd4:	00343383          	ld	t2,3(s0)
    80002bd8:	00730463          	beq	t1,t2,80002be0 <userstart+0x138>
    80002bdc:	3450106f          	j	80004720 <fail>
    80002be0:	00c00193          	li	gp,12
    80002be4:	01614337          	lui	t1,0x1614
    80002be8:	1213031b          	addiw	t1,t1,289 # 1614121 <_start-0x7e9ebedf>
    80002bec:	01231313          	slli	t1,t1,0x12
    80002bf0:	38330313          	addi	t1,t1,899
    80002bf4:	01131313          	slli	t1,t1,0x11
    80002bf8:	50430313          	addi	t1,t1,1284
    80002bfc:	00443383          	ld	t2,4(s0)
    80002c00:	00730463          	beq	t1,t2,80002c08 <userstart+0x160>
    80002c04:	31d0106f          	j	80004720 <fail>
    80002c08:	00d00193          	li	gp,13
    80002c0c:	00060337          	lui	t1,0x60
    80002c10:	5853031b          	addiw	t1,t1,1413 # 60585 <_start-0x7ff9fa7b>
    80002c14:	00d31313          	slli	t1,t1,0xd
    80002c18:	09130313          	addi	t1,t1,145
    80002c1c:	00c31313          	slli	t1,t1,0xc
    80002c20:	80730313          	addi	t1,t1,-2041
    80002c24:	01031313          	slli	t1,t1,0x10
    80002c28:	60530313          	addi	t1,t1,1541
    80002c2c:	00543383          	ld	t2,5(s0)
    80002c30:	00730463          	beq	t1,t2,80002c38 <userstart+0x190>
    80002c34:	2ed0106f          	j	80004720 <fail>
    80002c38:	00e00193          	li	gp,14
    80002c3c:	06860337          	lui	t1,0x6860
    80002c40:	5853031b          	addiw	t1,t1,1413 # 6860585 <_start-0x7979fa7b>
    80002c44:	00e31313          	slli	t1,t1,0xe
    80002c48:	12130313          	addi	t1,t1,289
    80002c4c:	01331313          	slli	t1,t1,0x13
    80002c50:	70630313          	addi	t1,t1,1798
    80002c54:	00643383          	ld	t2,6(s0)
    80002c58:	00730463          	beq	t1,t2,80002c60 <userstart+0x1b8>
    80002c5c:	2c50106f          	j	80004720 <fail>
    80002c60:	00f00193          	li	gp,15
    80002c64:	00038337          	lui	t1,0x38
    80002c68:	3433031b          	addiw	t1,t1,835 # 38343 <_start-0x7ffc7cbd>
    80002c6c:	01131313          	slli	t1,t1,0x11
    80002c70:	58530313          	addi	t1,t1,1413
    80002c74:	00d31313          	slli	t1,t1,0xd
    80002c78:	09130313          	addi	t1,t1,145
    80002c7c:	00c31313          	slli	t1,t1,0xc
    80002c80:	80730313          	addi	t1,t1,-2041
    80002c84:	00743383          	ld	t2,7(s0)
    80002c88:	00730463          	beq	t1,t2,80002c90 <userstart+0x1e8>
    80002c8c:	2950106f          	j	80004720 <fail>
    80002c90:	01000193          	li	gp,16
    80002c94:	00002337          	lui	t1,0x2
    80002c98:	01f3031b          	addiw	t1,t1,31 # 201f <_start-0x7fffdfe1>
    80002c9c:	01f41383          	lh	t2,31(s0)
    80002ca0:	00730463          	beq	t1,t2,80002ca8 <userstart+0x200>
    80002ca4:	27d0106f          	j	80004720 <fail>
    80002ca8:	01100193          	li	gp,17
    80002cac:	00002337          	lui	t1,0x2
    80002cb0:	01f3031b          	addiw	t1,t1,31 # 201f <_start-0x7fffdfe1>
    80002cb4:	01f45383          	lhu	t2,31(s0)
    80002cb8:	00730463          	beq	t1,t2,80002cc0 <userstart+0x218>
    80002cbc:	2650106f          	j	80004720 <fail>
    80002cc0:	01200193          	li	gp,18
    80002cc4:	201f2337          	lui	t1,0x201f2
    80002cc8:	e1d3031b          	addiw	t1,t1,-483 # 201f1e1d <_start-0x5fe0e1e3>
    80002ccc:	01d42383          	lw	t2,29(s0)
    80002cd0:	00730463          	beq	t1,t2,80002cd8 <userstart+0x230>
    80002cd4:	24d0106f          	j	80004720 <fail>
    80002cd8:	01300193          	li	gp,19
    80002cdc:	21202337          	lui	t1,0x21202
    80002ce0:	f1e3031b          	addiw	t1,t1,-226 # 21201f1e <_start-0x5edfe0e2>
    80002ce4:	01e42383          	lw	t2,30(s0)
    80002ce8:	00730463          	beq	t1,t2,80002cf0 <userstart+0x248>
    80002cec:	2350106f          	j	80004720 <fail>
    80002cf0:	01400193          	li	gp,20
    80002cf4:	22212337          	lui	t1,0x22212
    80002cf8:	01f3031b          	addiw	t1,t1,31 # 2221201f <_start-0x5ddedfe1>
    80002cfc:	01f42383          	lw	t2,31(s0)
    80002d00:	00730463          	beq	t1,t2,80002d08 <userstart+0x260>
    80002d04:	21d0106f          	j	80004720 <fail>
    80002d08:	01500193          	li	gp,21
    80002d0c:	201f2337          	lui	t1,0x201f2
    80002d10:	e1d3031b          	addiw	t1,t1,-483 # 201f1e1d <_start-0x5fe0e1e3>
    80002d14:	01d46383          	lwu	t2,29(s0)
    80002d18:	00730463          	beq	t1,t2,80002d20 <userstart+0x278>
    80002d1c:	2050106f          	j	80004720 <fail>
    80002d20:	01600193          	li	gp,22
    80002d24:	21202337          	lui	t1,0x21202
    80002d28:	f1e3031b          	addiw	t1,t1,-226 # 21201f1e <_start-0x5edfe0e2>
    80002d2c:	01e46383          	lwu	t2,30(s0)
    80002d30:	00730463          	beq	t1,t2,80002d38 <userstart+0x290>
    80002d34:	1ed0106f          	j	80004720 <fail>
    80002d38:	01700193          	li	gp,23
    80002d3c:	22212337          	lui	t1,0x22212
    80002d40:	01f3031b          	addiw	t1,t1,31 # 2221201f <_start-0x5ddedfe1>
    80002d44:	01f46383          	lwu	t2,31(s0)
    80002d48:	00730463          	beq	t1,t2,80002d50 <userstart+0x2a8>
    80002d4c:	1d50106f          	j	80004720 <fail>
    80002d50:	01800193          	li	gp,24
    80002d54:	00101337          	lui	t1,0x101
    80002d58:	f8f3031b          	addiw	t1,t1,-113 # 100f8f <_start-0x7feff071>
    80002d5c:	00f31313          	slli	t1,t1,0xf
    80002d60:	74730313          	addi	t1,t1,1863
    80002d64:	00d31313          	slli	t1,t1,0xd
    80002d68:	0d930313          	addi	t1,t1,217
    80002d6c:	00d31313          	slli	t1,t1,0xd
    80002d70:	a1930313          	addi	t1,t1,-1511
    80002d74:	01943383          	ld	t2,25(s0)
    80002d78:	00730463          	beq	t1,t2,80002d80 <userstart+0x2d8>
    80002d7c:	1a50106f          	j	80004720 <fail>
    80002d80:	01900193          	li	gp,25
    80002d84:	01090337          	lui	t1,0x1090
    80002d88:	0f93031b          	addiw	t1,t1,249 # 10900f9 <_start-0x7ef6ff07>
    80002d8c:	00c31313          	slli	t1,t1,0xc
    80002d90:	f0f30313          	addi	t1,t1,-241
    80002d94:	00c31313          	slli	t1,t1,0xc
    80002d98:	8e130313          	addi	t1,t1,-1823
    80002d9c:	00d31313          	slli	t1,t1,0xd
    80002da0:	b1a30313          	addi	t1,t1,-1254
    80002da4:	01a43383          	ld	t2,26(s0)
    80002da8:	00730463          	beq	t1,t2,80002db0 <userstart+0x308>
    80002dac:	1750106f          	j	80004720 <fail>
    80002db0:	01a00193          	li	gp,26
    80002db4:	01111337          	lui	t1,0x1111
    80002db8:	9013031b          	addiw	t1,t1,-1791 # 1110901 <_start-0x7eeef6ff>
    80002dbc:	00c31313          	slli	t1,t1,0xc
    80002dc0:	f8f30313          	addi	t1,t1,-113
    80002dc4:	00c31313          	slli	t1,t1,0xc
    80002dc8:	0e930313          	addi	t1,t1,233
    80002dcc:	00d31313          	slli	t1,t1,0xd
    80002dd0:	c1b30313          	addi	t1,t1,-997
    80002dd4:	01b43383          	ld	t2,27(s0)
    80002dd8:	00730463          	beq	t1,t2,80002de0 <userstart+0x338>
    80002ddc:	1450106f          	j	80004720 <fail>
    80002de0:	01b00193          	li	gp,27
    80002de4:	00119337          	lui	t1,0x119
    80002de8:	1113031b          	addiw	t1,t1,273 # 119111 <_start-0x7fee6eef>
    80002dec:	00c31313          	slli	t1,t1,0xc
    80002df0:	90130313          	addi	t1,t1,-1791
    80002df4:	01031313          	slli	t1,t1,0x10
    80002df8:	8f130313          	addi	t1,t1,-1807
    80002dfc:	00d31313          	slli	t1,t1,0xd
    80002e00:	d1c30313          	addi	t1,t1,-740
    80002e04:	01c43383          	ld	t2,28(s0)
    80002e08:	00730463          	beq	t1,t2,80002e10 <userstart+0x368>
    80002e0c:	1150106f          	j	80004720 <fail>
    80002e10:	01c00193          	li	gp,28
    80002e14:	00121337          	lui	t1,0x121
    80002e18:	1913031b          	addiw	t1,t1,401 # 121191 <_start-0x7fedee6f>
    80002e1c:	00c31313          	slli	t1,t1,0xc
    80002e20:	10930313          	addi	t1,t1,265
    80002e24:	01031313          	slli	t1,t1,0x10
    80002e28:	0f930313          	addi	t1,t1,249
    80002e2c:	00d31313          	slli	t1,t1,0xd
    80002e30:	e1d30313          	addi	t1,t1,-483
    80002e34:	01d43383          	ld	t2,29(s0)
    80002e38:	00730463          	beq	t1,t2,80002e40 <userstart+0x398>
    80002e3c:	0e50106f          	j	80004720 <fail>
    80002e40:	01d00193          	li	gp,29
    80002e44:	01292337          	lui	t1,0x1292
    80002e48:	1193031b          	addiw	t1,t1,281 # 1292119 <_start-0x7ed6dee7>
    80002e4c:	00c31313          	slli	t1,t1,0xc
    80002e50:	11130313          	addi	t1,t1,273
    80002e54:	00c31313          	slli	t1,t1,0xc
    80002e58:	90130313          	addi	t1,t1,-1791
    80002e5c:	00d31313          	slli	t1,t1,0xd
    80002e60:	f1e30313          	addi	t1,t1,-226
    80002e64:	01e43383          	ld	t2,30(s0)
    80002e68:	00730463          	beq	t1,t2,80002e70 <userstart+0x3c8>
    80002e6c:	0b50106f          	j	80004720 <fail>
    80002e70:	01e00193          	li	gp,30
    80002e74:	01313337          	lui	t1,0x1313
    80002e78:	9213031b          	addiw	t1,t1,-1759 # 1312921 <_start-0x7eced6df>
    80002e7c:	00c31313          	slli	t1,t1,0xc
    80002e80:	19130313          	addi	t1,t1,401
    80002e84:	00c31313          	slli	t1,t1,0xc
    80002e88:	10930313          	addi	t1,t1,265
    80002e8c:	00d31313          	slli	t1,t1,0xd
    80002e90:	01f30313          	addi	t1,t1,31
    80002e94:	01f43383          	ld	t2,31(s0)
    80002e98:	00730463          	beq	t1,t2,80002ea0 <userstart+0x3f8>
    80002e9c:	0850106f          	j	80004720 <fail>
    80002ea0:	01f00193          	li	gp,31
    80002ea4:	00004337          	lui	t1,0x4
    80002ea8:	03f3031b          	addiw	t1,t1,63 # 403f <_start-0x7fffbfc1>
    80002eac:	03f41383          	lh	t2,63(s0)
    80002eb0:	00730463          	beq	t1,t2,80002eb8 <userstart+0x410>
    80002eb4:	06d0106f          	j	80004720 <fail>
    80002eb8:	02000193          	li	gp,32
    80002ebc:	00004337          	lui	t1,0x4
    80002ec0:	03f3031b          	addiw	t1,t1,63 # 403f <_start-0x7fffbfc1>
    80002ec4:	03f45383          	lhu	t2,63(s0)
    80002ec8:	00730463          	beq	t1,t2,80002ed0 <userstart+0x428>
    80002ecc:	0550106f          	j	80004720 <fail>
    80002ed0:	02100193          	li	gp,33
    80002ed4:	403f4337          	lui	t1,0x403f4
    80002ed8:	e3d3031b          	addiw	t1,t1,-451 # 403f3e3d <_start-0x3fc0c1c3>
    80002edc:	03d42383          	lw	t2,61(s0)
    80002ee0:	00730463          	beq	t1,t2,80002ee8 <userstart+0x440>
    80002ee4:	03d0106f          	j	80004720 <fail>
    80002ee8:	02200193          	li	gp,34
    80002eec:	41404337          	lui	t1,0x41404
    80002ef0:	f3e3031b          	addiw	t1,t1,-194 # 41403f3e <_start-0x3ebfc0c2>
    80002ef4:	03e42383          	lw	t2,62(s0)
    80002ef8:	00730463          	beq	t1,t2,80002f00 <userstart+0x458>
    80002efc:	0250106f          	j	80004720 <fail>
    80002f00:	02300193          	li	gp,35
    80002f04:	42414337          	lui	t1,0x42414
    80002f08:	03f3031b          	addiw	t1,t1,63 # 4241403f <_start-0x3dbebfc1>
    80002f0c:	03f42383          	lw	t2,63(s0)
    80002f10:	00730463          	beq	t1,t2,80002f18 <userstart+0x470>
    80002f14:	00d0106f          	j	80004720 <fail>
    80002f18:	02400193          	li	gp,36
    80002f1c:	403f4337          	lui	t1,0x403f4
    80002f20:	e3d3031b          	addiw	t1,t1,-451 # 403f3e3d <_start-0x3fc0c1c3>
    80002f24:	03d46383          	lwu	t2,61(s0)
    80002f28:	00730463          	beq	t1,t2,80002f30 <userstart+0x488>
    80002f2c:	7f40106f          	j	80004720 <fail>
    80002f30:	02500193          	li	gp,37
    80002f34:	41404337          	lui	t1,0x41404
    80002f38:	f3e3031b          	addiw	t1,t1,-194 # 41403f3e <_start-0x3ebfc0c2>
    80002f3c:	03e46383          	lwu	t2,62(s0)
    80002f40:	00730463          	beq	t1,t2,80002f48 <userstart+0x4a0>
    80002f44:	7dc0106f          	j	80004720 <fail>
    80002f48:	02600193          	li	gp,38
    80002f4c:	42414337          	lui	t1,0x42414
    80002f50:	03f3031b          	addiw	t1,t1,63 # 4241403f <_start-0x3dbebfc1>
    80002f54:	03f46383          	lwu	t2,63(s0)
    80002f58:	00730463          	beq	t1,t2,80002f60 <userstart+0x4b8>
    80002f5c:	7c40106f          	j	80004720 <fail>
    80002f60:	02700193          	li	gp,39
    80002f64:	01010337          	lui	t1,0x1010
    80002f68:	cf93031b          	addiw	t1,t1,-775 # 100fcf9 <_start-0x7eff0307>
    80002f6c:	00c31313          	slli	t1,t1,0xc
    80002f70:	f4f30313          	addi	t1,t1,-177
    80002f74:	00c31313          	slli	t1,t1,0xc
    80002f78:	0ed30313          	addi	t1,t1,237
    80002f7c:	00e31313          	slli	t1,t1,0xe
    80002f80:	a3930313          	addi	t1,t1,-1479
    80002f84:	03943383          	ld	t2,57(s0)
    80002f88:	00730463          	beq	t1,t2,80002f90 <userstart+0x4e8>
    80002f8c:	7940106f          	j	80004720 <fail>
    80002f90:	02800193          	li	gp,40
    80002f94:	01050337          	lui	t1,0x1050
    80002f98:	0fd3031b          	addiw	t1,t1,253 # 10500fd <_start-0x7efaff03>
    80002f9c:	00c31313          	slli	t1,t1,0xc
    80002fa0:	f8f30313          	addi	t1,t1,-113
    80002fa4:	00c31313          	slli	t1,t1,0xc
    80002fa8:	4f130313          	addi	t1,t1,1265
    80002fac:	00e31313          	slli	t1,t1,0xe
    80002fb0:	b3a30313          	addi	t1,t1,-1222
    80002fb4:	03a43383          	ld	t2,58(s0)
    80002fb8:	00730463          	beq	t1,t2,80002fc0 <userstart+0x518>
    80002fbc:	7640106f          	j	80004720 <fail>
    80002fc0:	02900193          	li	gp,41
    80002fc4:	00011337          	lui	t1,0x11
    80002fc8:	9053031b          	addiw	t1,t1,-1787 # 10905 <_start-0x7ffef6fb>
    80002fcc:	01031313          	slli	t1,t1,0x10
    80002fd0:	0fd30313          	addi	t1,t1,253
    80002fd4:	01031313          	slli	t1,t1,0x10
    80002fd8:	8f530313          	addi	t1,t1,-1803
    80002fdc:	00e31313          	slli	t1,t1,0xe
    80002fe0:	c3b30313          	addi	t1,t1,-965
    80002fe4:	03b43383          	ld	t2,59(s0)
    80002fe8:	00730463          	beq	t1,t2,80002ff0 <userstart+0x548>
    80002fec:	7340106f          	j	80004720 <fail>
    80002ff0:	02a00193          	li	gp,42
    80002ff4:	00011337          	lui	t1,0x11
    80002ff8:	d093031b          	addiw	t1,t1,-759 # 10d09 <_start-0x7ffef2f7>
    80002ffc:	01031313          	slli	t1,t1,0x10
    80003000:	50130313          	addi	t1,t1,1281
    80003004:	01031313          	slli	t1,t1,0x10
    80003008:	cf930313          	addi	t1,t1,-775
    8000300c:	00e31313          	slli	t1,t1,0xe
    80003010:	d3c30313          	addi	t1,t1,-708
    80003014:	03c43383          	ld	t2,60(s0)
    80003018:	00730463          	beq	t1,t2,80003020 <userstart+0x578>
    8000301c:	7040106f          	j	80004720 <fail>
    80003020:	02b00193          	li	gp,43
    80003024:	00111337          	lui	t1,0x111
    80003028:	0d13031b          	addiw	t1,t1,209 # 1110d1 <_start-0x7feeef2f>
    8000302c:	00c31313          	slli	t1,t1,0xc
    80003030:	90530313          	addi	t1,t1,-1787
    80003034:	01031313          	slli	t1,t1,0x10
    80003038:	0fd30313          	addi	t1,t1,253
    8000303c:	00e31313          	slli	t1,t1,0xe
    80003040:	e3d30313          	addi	t1,t1,-451
    80003044:	03d43383          	ld	t2,61(s0)
    80003048:	00730463          	beq	t1,t2,80003050 <userstart+0x5a8>
    8000304c:	6d40106f          	j	80004720 <fail>
    80003050:	02c00193          	li	gp,44
    80003054:	00115337          	lui	t1,0x115
    80003058:	1113031b          	addiw	t1,t1,273 # 115111 <_start-0x7feeaeef>
    8000305c:	00c31313          	slli	t1,t1,0xc
    80003060:	d0930313          	addi	t1,t1,-759
    80003064:	01031313          	slli	t1,t1,0x10
    80003068:	50130313          	addi	t1,t1,1281
    8000306c:	00e31313          	slli	t1,t1,0xe
    80003070:	f3e30313          	addi	t1,t1,-194
    80003074:	03e43383          	ld	t2,62(s0)
    80003078:	00730463          	beq	t1,t2,80003080 <userstart+0x5d8>
    8000307c:	6a40106f          	j	80004720 <fail>
    80003080:	02d00193          	li	gp,45
    80003084:	01191337          	lui	t1,0x1191
    80003088:	5113031b          	addiw	t1,t1,1297 # 1191511 <_start-0x7ee6eaef>
    8000308c:	00c31313          	slli	t1,t1,0xc
    80003090:	0d130313          	addi	t1,t1,209
    80003094:	00c31313          	slli	t1,t1,0xc
    80003098:	90530313          	addi	t1,t1,-1787
    8000309c:	00e31313          	slli	t1,t1,0xe
    800030a0:	03f30313          	addi	t1,t1,63
    800030a4:	03f43383          	ld	t2,63(s0)
    800030a8:	00730463          	beq	t1,t2,800030b0 <userstart+0x608>
    800030ac:	6740106f          	j	80004720 <fail>
    800030b0:	02e00193          	li	gp,46
    800030b4:	ffff8337          	lui	t1,0xffff8
    800030b8:	1803031b          	addiw	t1,t1,384 # ffffffffffff8180 <freelist_head+0xffffffff7ffed178>
    800030bc:	006410a3          	sh	t1,1(s0)
    800030c0:	00141383          	lh	t2,1(s0)
    800030c4:	00730463          	beq	t1,t2,800030cc <userstart+0x624>
    800030c8:	6580106f          	j	80004720 <fail>
    800030cc:	02f00193          	li	gp,47
    800030d0:	00008337          	lui	t1,0x8
    800030d4:	3823031b          	addiw	t1,t1,898 # 8382 <_start-0x7fff7c7e>
    800030d8:	006410a3          	sh	t1,1(s0)
    800030dc:	00145383          	lhu	t2,1(s0)
    800030e0:	00730463          	beq	t1,t2,800030e8 <userstart+0x640>
    800030e4:	63c0106f          	j	80004720 <fail>
    800030e8:	03000193          	li	gp,48
    800030ec:	87868337          	lui	t1,0x87868
    800030f0:	5843031b          	addiw	t1,t1,1412 # ffffffff87868584 <freelist_head+0xffffffff0785d57c>
    800030f4:	006420a3          	sw	t1,1(s0)
    800030f8:	00142383          	lw	t2,1(s0)
    800030fc:	00730463          	beq	t1,t2,80003104 <userstart+0x65c>
    80003100:	6200106f          	j	80004720 <fail>
    80003104:	03100193          	li	gp,49
    80003108:	8b8a9337          	lui	t1,0x8b8a9
    8000310c:	9883031b          	addiw	t1,t1,-1656 # ffffffff8b8a8988 <freelist_head+0xffffffff0b89d980>
    80003110:	00642123          	sw	t1,2(s0)
    80003114:	00242383          	lw	t2,2(s0)
    80003118:	00730463          	beq	t1,t2,80003120 <userstart+0x678>
    8000311c:	6040106f          	j	80004720 <fail>
    80003120:	03200193          	li	gp,50
    80003124:	8f8e9337          	lui	t1,0x8f8e9
    80003128:	d8c3031b          	addiw	t1,t1,-628 # ffffffff8f8e8d8c <freelist_head+0xffffffff0f8ddd84>
    8000312c:	006421a3          	sw	t1,3(s0)
    80003130:	00342383          	lw	t2,3(s0)
    80003134:	00730463          	beq	t1,t2,8000313c <userstart+0x694>
    80003138:	5e80106f          	j	80004720 <fail>
    8000313c:	03300193          	li	gp,51
    80003140:	00094337          	lui	t1,0x94
    80003144:	9293031b          	addiw	t1,t1,-1751 # 93929 <_start-0x7ff6c6d7>
    80003148:	00c31313          	slli	t1,t1,0xc
    8000314c:	19030313          	addi	t1,t1,400
    80003150:	006420a3          	sw	t1,1(s0)
    80003154:	00146383          	lwu	t2,1(s0)
    80003158:	00730463          	beq	t1,t2,80003160 <userstart+0x6b8>
    8000315c:	5c40106f          	j	80004720 <fail>
    80003160:	03400193          	li	gp,52
    80003164:	00098337          	lui	t1,0x98
    80003168:	9693031b          	addiw	t1,t1,-1687 # 97969 <_start-0x7ff68697>
    8000316c:	00c31313          	slli	t1,t1,0xc
    80003170:	59430313          	addi	t1,t1,1428
    80003174:	00642123          	sw	t1,2(s0)
    80003178:	00246383          	lwu	t2,2(s0)
    8000317c:	00730463          	beq	t1,t2,80003184 <userstart+0x6dc>
    80003180:	5a00106f          	j	80004720 <fail>
    80003184:	03500193          	li	gp,53
    80003188:	0004e337          	lui	t1,0x4e
    8000318c:	cd53031b          	addiw	t1,t1,-811 # 4dcd5 <_start-0x7ffb232b>
    80003190:	00d31313          	slli	t1,t1,0xd
    80003194:	99830313          	addi	t1,t1,-1640
    80003198:	006421a3          	sw	t1,3(s0)
    8000319c:	00346383          	lwu	t2,3(s0)
    800031a0:	00730463          	beq	t1,t2,800031a8 <userstart+0x700>
    800031a4:	57c0106f          	j	80004720 <fail>
    800031a8:	03600193          	li	gp,54
    800031ac:	ffd1d337          	lui	t1,0xffd1d
    800031b0:	1513031b          	addiw	t1,t1,337 # ffffffffffd1d151 <freelist_head+0xffffffff7fd12149>
    800031b4:	00c31313          	slli	t1,t1,0xc
    800031b8:	d0530313          	addi	t1,t1,-763
    800031bc:	01031313          	slli	t1,t1,0x10
    800031c0:	cf530313          	addi	t1,t1,-779
    800031c4:	00d31313          	slli	t1,t1,0xd
    800031c8:	d9c30313          	addi	t1,t1,-612
    800031cc:	006430a3          	sd	t1,1(s0)
    800031d0:	00143383          	ld	t2,1(s0)
    800031d4:	00730463          	beq	t1,t2,800031dc <userstart+0x734>
    800031d8:	5480106f          	j	80004720 <fail>
    800031dc:	03700193          	li	gp,55
    800031e0:	ff575337          	lui	t1,0xff575
    800031e4:	5533031b          	addiw	t1,t1,1363 # ffffffffff575553 <freelist_head+0xffffffff7f56a54b>
    800031e8:	00c31313          	slli	t1,t1,0xc
    800031ec:	51530313          	addi	t1,t1,1301
    800031f0:	00e31313          	slli	t1,t1,0xe
    800031f4:	d3530313          	addi	t1,t1,-715
    800031f8:	00d31313          	slli	t1,t1,0xd
    800031fc:	5a430313          	addi	t1,t1,1444
    80003200:	00643123          	sd	t1,2(s0)
    80003204:	00243383          	ld	t2,2(s0)
    80003208:	00730463          	beq	t1,t2,80003210 <userstart+0x768>
    8000320c:	5140106f          	j	80004720 <fail>
    80003210:	03800193          	li	gp,56
    80003214:	ffd9e337          	lui	t1,0xffd9e
    80003218:	9593031b          	addiw	t1,t1,-1703 # ffffffffffd9d959 <freelist_head+0xffffffff7fd92951>
    8000321c:	00d31313          	slli	t1,t1,0xd
    80003220:	b0b30313          	addi	t1,t1,-1269
    80003224:	01031313          	slli	t1,t1,0x10
    80003228:	aeb30313          	addi	t1,t1,-1301
    8000322c:	00c31313          	slli	t1,t1,0xc
    80003230:	dac30313          	addi	t1,t1,-596
    80003234:	006431a3          	sd	t1,3(s0)
    80003238:	00343383          	ld	t2,3(s0)
    8000323c:	00730463          	beq	t1,t2,80003244 <userstart+0x79c>
    80003240:	4e00106f          	j	80004720 <fail>
    80003244:	03900193          	li	gp,57
    80003248:	ff777337          	lui	t1,0xff777
    8000324c:	5733031b          	addiw	t1,t1,1395 # ffffffffff777573 <freelist_head+0xffffffff7f76c56b>
    80003250:	00c31313          	slli	t1,t1,0xc
    80003254:	71730313          	addi	t1,t1,1815
    80003258:	00f31313          	slli	t1,t1,0xf
    8000325c:	b6b30313          	addi	t1,t1,-1173
    80003260:	00c31313          	slli	t1,t1,0xc
    80003264:	5b430313          	addi	t1,t1,1460
    80003268:	00643223          	sd	t1,4(s0)
    8000326c:	00443383          	ld	t2,4(s0)
    80003270:	00730463          	beq	t1,t2,80003278 <userstart+0x7d0>
    80003274:	4ac0106f          	j	80004720 <fail>
    80003278:	03a00193          	li	gp,58
    8000327c:	ffff1337          	lui	t1,0xffff1
    80003280:	f0b3031b          	addiw	t1,t1,-245 # ffffffffffff0f0b <freelist_head+0xffffffff7ffe5f03>
    80003284:	01031313          	slli	t1,t1,0x10
    80003288:	70330313          	addi	t1,t1,1795
    8000328c:	01031313          	slli	t1,t1,0x10
    80003290:	efb30313          	addi	t1,t1,-261
    80003294:	00e31313          	slli	t1,t1,0xe
    80003298:	dbc30313          	addi	t1,t1,-580
    8000329c:	006432a3          	sd	t1,5(s0)
    800032a0:	00543383          	ld	t2,5(s0)
    800032a4:	00730463          	beq	t1,t2,800032ac <userstart+0x804>
    800032a8:	4780106f          	j	80004720 <fail>
    800032ac:	03b00193          	li	gp,59
    800032b0:	ffe5e337          	lui	t1,0xffe5e
    800032b4:	5653031b          	addiw	t1,t1,1381 # ffffffffffe5e565 <freelist_head+0xffffffff7fe5355d>
    800032b8:	00e31313          	slli	t1,t1,0xe
    800032bc:	91930313          	addi	t1,t1,-1767
    800032c0:	00d31313          	slli	t1,t1,0xd
    800032c4:	f1b30313          	addi	t1,t1,-229
    800032c8:	00e31313          	slli	t1,t1,0xe
    800032cc:	5c430313          	addi	t1,t1,1476
    800032d0:	00643323          	sd	t1,6(s0)
    800032d4:	00643383          	ld	t2,6(s0)
    800032d8:	00730463          	beq	t1,t2,800032e0 <userstart+0x838>
    800032dc:	4440106f          	j	80004720 <fail>
    800032e0:	03c00193          	li	gp,60
    800032e4:	ffe9f337          	lui	t1,0xffe9f
    800032e8:	9693031b          	addiw	t1,t1,-1687 # ffffffffffe9e969 <freelist_head+0xffffffff7fe93961>
    800032ec:	00d31313          	slli	t1,t1,0xd
    800032f0:	d0d30313          	addi	t1,t1,-755
    800032f4:	01031313          	slli	t1,t1,0x10
    800032f8:	ced30313          	addi	t1,t1,-787
    800032fc:	00c31313          	slli	t1,t1,0xc
    80003300:	dcc30313          	addi	t1,t1,-564
    80003304:	006433a3          	sd	t1,7(s0)
    80003308:	00743383          	ld	t2,7(s0)
    8000330c:	00730463          	beq	t1,t2,80003314 <userstart+0x86c>
    80003310:	4100106f          	j	80004720 <fail>
    80003314:	03d00193          	li	gp,61
    80003318:	ffffd337          	lui	t1,0xffffd
    8000331c:	5d43031b          	addiw	t1,t1,1492 # ffffffffffffd5d4 <freelist_head+0xffffffff7fff25cc>
    80003320:	00641fa3          	sh	t1,31(s0)
    80003324:	01f41383          	lh	t2,31(s0)
    80003328:	00730463          	beq	t1,t2,80003330 <userstart+0x888>
    8000332c:	3f40106f          	j	80004720 <fail>
    80003330:	03e00193          	li	gp,62
    80003334:	0000d337          	lui	t1,0xd
    80003338:	7d63031b          	addiw	t1,t1,2006 # d7d6 <_start-0x7fff282a>
    8000333c:	00641fa3          	sh	t1,31(s0)
    80003340:	01f45383          	lhu	t2,31(s0)
    80003344:	00730463          	beq	t1,t2,8000334c <userstart+0x8a4>
    80003348:	3d80106f          	j	80004720 <fail>
    8000334c:	03f00193          	li	gp,63
    80003350:	dbdae337          	lui	t1,0xdbdae
    80003354:	9d83031b          	addiw	t1,t1,-1576 # ffffffffdbdad9d8 <freelist_head+0xffffffff5bda29d0>
    80003358:	00642ea3          	sw	t1,29(s0)
    8000335c:	01d42383          	lw	t2,29(s0)
    80003360:	00730463          	beq	t1,t2,80003368 <userstart+0x8c0>
    80003364:	3bc0106f          	j	80004720 <fail>
    80003368:	04000193          	li	gp,64
    8000336c:	dfdee337          	lui	t1,0xdfdee
    80003370:	ddc3031b          	addiw	t1,t1,-548 # ffffffffdfdedddc <freelist_head+0xffffffff5fde2dd4>
    80003374:	00642f23          	sw	t1,30(s0)
    80003378:	01e42383          	lw	t2,30(s0)
    8000337c:	00730463          	beq	t1,t2,80003384 <userstart+0x8dc>
    80003380:	3a00106f          	j	80004720 <fail>
    80003384:	04100193          	li	gp,65
    80003388:	e3e2e337          	lui	t1,0xe3e2e
    8000338c:	1e03031b          	addiw	t1,t1,480 # ffffffffe3e2e1e0 <freelist_head+0xffffffff63e231d8>
    80003390:	00642fa3          	sw	t1,31(s0)
    80003394:	01f42383          	lw	t2,31(s0)
    80003398:	00730463          	beq	t1,t2,800033a0 <userstart+0x8f8>
    8000339c:	3840106f          	j	80004720 <fail>
    800033a0:	04200193          	li	gp,66
    800033a4:	00074337          	lui	t1,0x74
    800033a8:	f373031b          	addiw	t1,t1,-201 # 73f37 <_start-0x7ff8c0c9>
    800033ac:	00d31313          	slli	t1,t1,0xd
    800033b0:	5e430313          	addi	t1,t1,1508
    800033b4:	00642ea3          	sw	t1,29(s0)
    800033b8:	01d46383          	lwu	t2,29(s0)
    800033bc:	00730463          	beq	t1,t2,800033c4 <userstart+0x91c>
    800033c0:	3600106f          	j	80004720 <fail>
    800033c4:	04300193          	li	gp,67
    800033c8:	000ec337          	lui	t1,0xec
    800033cc:	eaf3031b          	addiw	t1,t1,-337 # ebeaf <_start-0x7ff14151>
    800033d0:	00c31313          	slli	t1,t1,0xc
    800033d4:	9e830313          	addi	t1,t1,-1560
    800033d8:	00642f23          	sw	t1,30(s0)
    800033dc:	01e46383          	lwu	t2,30(s0)
    800033e0:	00730463          	beq	t1,t2,800033e8 <userstart+0x940>
    800033e4:	33c0106f          	j	80004720 <fail>
    800033e8:	04400193          	li	gp,68
    800033ec:	000f0337          	lui	t1,0xf0
    800033f0:	eef3031b          	addiw	t1,t1,-273 # efeef <_start-0x7ff10111>
    800033f4:	00c31313          	slli	t1,t1,0xc
    800033f8:	dec30313          	addi	t1,t1,-532
    800033fc:	00642fa3          	sw	t1,31(s0)
    80003400:	01f46383          	lwu	t2,31(s0)
    80003404:	00730463          	beq	t1,t2,8000340c <userstart+0x964>
    80003408:	3180106f          	j	80004720 <fail>
    8000340c:	04500193          	li	gp,69
    80003410:	fffc0337          	lui	t1,0xfffc0
    80003414:	b7b3031b          	addiw	t1,t1,-1157 # fffffffffffbfb7b <freelist_head+0xffffffff7ffb4b73>
    80003418:	00f31313          	slli	t1,t1,0xf
    8000341c:	d3d30313          	addi	t1,t1,-707
    80003420:	00e31313          	slli	t1,t1,0xe
    80003424:	f2f30313          	addi	t1,t1,-209
    80003428:	00c31313          	slli	t1,t1,0xc
    8000342c:	1f030313          	addi	t1,t1,496
    80003430:	00643ca3          	sd	t1,25(s0)
    80003434:	01943383          	ld	t2,25(s0)
    80003438:	00730463          	beq	t1,t2,80003440 <userstart+0x998>
    8000343c:	2e40106f          	j	80004720 <fail>
    80003440:	04600193          	li	gp,70
    80003444:	ffff0337          	lui	t1,0xffff0
    80003448:	dfd3031b          	addiw	t1,t1,-515 # fffffffffffefdfd <freelist_head+0xffffffff7ffe4df5>
    8000344c:	01031313          	slli	t1,t1,0x10
    80003450:	bfb30313          	addi	t1,t1,-1029
    80003454:	01031313          	slli	t1,t1,0x10
    80003458:	9f830313          	addi	t1,t1,-1544
    8000345c:	00643d23          	sd	t1,26(s0)
    80003460:	01a43383          	ld	t2,26(s0)
    80003464:	00730463          	beq	t1,t2,8000346c <userstart+0x9c4>
    80003468:	2b80106f          	j	80004720 <fail>
    8000346c:	04700193          	li	gp,71
    80003470:	01c18337          	lui	t1,0x1c18
    80003474:	1413031b          	addiw	t1,t1,321 # 1c18141 <_start-0x7e3e7ebf>
    80003478:	01131313          	slli	t1,t1,0x11
    8000347c:	18130313          	addi	t1,t1,385
    80003480:	01131313          	slli	t1,t1,0x11
    80003484:	10030313          	addi	t1,t1,256
    80003488:	00643da3          	sd	t1,27(s0)
    8000348c:	01b43383          	ld	t2,27(s0)
    80003490:	00730463          	beq	t1,t2,80003498 <userstart+0x9f0>
    80003494:	28c0106f          	j	80004720 <fail>
    80003498:	04800193          	li	gp,72
    8000349c:	00f0e337          	lui	t1,0xf0e
    800034a0:	0d13031b          	addiw	t1,t1,209 # f0e0d1 <_start-0x7f0f1f2f>
    800034a4:	00c31313          	slli	t1,t1,0xc
    800034a8:	c0b30313          	addi	t1,t1,-1013
    800034ac:	00c31313          	slli	t1,t1,0xc
    800034b0:	0a130313          	addi	t1,t1,161
    800034b4:	00c31313          	slli	t1,t1,0xc
    800034b8:	90830313          	addi	t1,t1,-1784
    800034bc:	00643e23          	sd	t1,28(s0)
    800034c0:	01c43383          	ld	t2,28(s0)
    800034c4:	00730463          	beq	t1,t2,800034cc <userstart+0xa24>
    800034c8:	2580106f          	j	80004720 <fail>
    800034cc:	04900193          	li	gp,73
    800034d0:	01716337          	lui	t1,0x1716
    800034d4:	1513031b          	addiw	t1,t1,337 # 1716151 <_start-0x7e8e9eaf>
    800034d8:	00c31313          	slli	t1,t1,0xc
    800034dc:	41330313          	addi	t1,t1,1043
    800034e0:	00c31313          	slli	t1,t1,0xc
    800034e4:	12130313          	addi	t1,t1,289
    800034e8:	00c31313          	slli	t1,t1,0xc
    800034ec:	11030313          	addi	t1,t1,272
    800034f0:	00643ea3          	sd	t1,29(s0)
    800034f4:	01d43383          	ld	t2,29(s0)
    800034f8:	00730463          	beq	t1,t2,80003500 <userstart+0xa58>
    800034fc:	2240106f          	j	80004720 <fail>
    80003500:	04a00193          	li	gp,74
    80003504:	001f2337          	lui	t1,0x1f2
    80003508:	e1d3031b          	addiw	t1,t1,-483 # 1f1e1d <_start-0x7fe0e1e3>
    8000350c:	00e31313          	slli	t1,t1,0xe
    80003510:	70730313          	addi	t1,t1,1799
    80003514:	00d31313          	slli	t1,t1,0xd
    80003518:	8d130313          	addi	t1,t1,-1839
    8000351c:	00d31313          	slli	t1,t1,0xd
    80003520:	91830313          	addi	t1,t1,-1768
    80003524:	00643f23          	sd	t1,30(s0)
    80003528:	01e43383          	ld	t2,30(s0)
    8000352c:	00730463          	beq	t1,t2,80003534 <userstart+0xa8c>
    80003530:	1f00106f          	j	80004720 <fail>
    80003534:	04b00193          	li	gp,75
    80003538:	009ca337          	lui	t1,0x9ca
    8000353c:	8953031b          	addiw	t1,t1,-1899 # 9c9895 <_start-0x7f63676b>
    80003540:	00c31313          	slli	t1,t1,0xc
    80003544:	90930313          	addi	t1,t1,-1783
    80003548:	00d31313          	slli	t1,t1,0xd
    8000354c:	91130313          	addi	t1,t1,-1775
    80003550:	00d31313          	slli	t1,t1,0xd
    80003554:	12030313          	addi	t1,t1,288
    80003558:	00643fa3          	sd	t1,31(s0)
    8000355c:	01f43383          	ld	t2,31(s0)
    80003560:	00730463          	beq	t1,t2,80003568 <userstart+0xac0>
    80003564:	1bc0106f          	j	80004720 <fail>
    80003568:	04c00193          	li	gp,76
    8000356c:	00003337          	lui	t1,0x3
    80003570:	5343031b          	addiw	t1,t1,1332 # 3534 <_start-0x7fffcacc>
    80003574:	02641fa3          	sh	t1,63(s0)
    80003578:	03f41383          	lh	t2,63(s0)
    8000357c:	00730463          	beq	t1,t2,80003584 <userstart+0xadc>
    80003580:	1a00106f          	j	80004720 <fail>
    80003584:	04d00193          	li	gp,77
    80003588:	00003337          	lui	t1,0x3
    8000358c:	7363031b          	addiw	t1,t1,1846 # 3736 <_start-0x7fffc8ca>
    80003590:	02641fa3          	sh	t1,63(s0)
    80003594:	03f45383          	lhu	t2,63(s0)
    80003598:	00730463          	beq	t1,t2,800035a0 <userstart+0xaf8>
    8000359c:	1840106f          	j	80004720 <fail>
    800035a0:	04e00193          	li	gp,78
    800035a4:	3b3a4337          	lui	t1,0x3b3a4
    800035a8:	9383031b          	addiw	t1,t1,-1736 # 3b3a3938 <_start-0x44c5c6c8>
    800035ac:	02642ea3          	sw	t1,61(s0)
    800035b0:	03d42383          	lw	t2,61(s0)
    800035b4:	00730463          	beq	t1,t2,800035bc <userstart+0xb14>
    800035b8:	1680106f          	j	80004720 <fail>
    800035bc:	04f00193          	li	gp,79
    800035c0:	3f3e4337          	lui	t1,0x3f3e4
    800035c4:	d3c3031b          	addiw	t1,t1,-708 # 3f3e3d3c <_start-0x40c1c2c4>
    800035c8:	02642f23          	sw	t1,62(s0)
    800035cc:	03e42383          	lw	t2,62(s0)
    800035d0:	00730463          	beq	t1,t2,800035d8 <userstart+0xb30>
    800035d4:	14c0106f          	j	80004720 <fail>
    800035d8:	05000193          	li	gp,80
    800035dc:	43424337          	lui	t1,0x43424
    800035e0:	1403031b          	addiw	t1,t1,320 # 43424140 <_start-0x3cbdbec0>
    800035e4:	02642fa3          	sw	t1,63(s0)
    800035e8:	03f42383          	lw	t2,63(s0)
    800035ec:	00730463          	beq	t1,t2,800035f4 <userstart+0xb4c>
    800035f0:	1300106f          	j	80004720 <fail>
    800035f4:	05100193          	li	gp,81
    800035f8:	47464337          	lui	t1,0x47464
    800035fc:	5443031b          	addiw	t1,t1,1348 # 47464544 <_start-0x38b9babc>
    80003600:	02642ea3          	sw	t1,61(s0)
    80003604:	03d46383          	lwu	t2,61(s0)
    80003608:	00730463          	beq	t1,t2,80003610 <userstart+0xb68>
    8000360c:	1140106f          	j	80004720 <fail>
    80003610:	05200193          	li	gp,82
    80003614:	4b4a5337          	lui	t1,0x4b4a5
    80003618:	9483031b          	addiw	t1,t1,-1720 # 4b4a4948 <_start-0x34b5b6b8>
    8000361c:	02642f23          	sw	t1,62(s0)
    80003620:	03e46383          	lwu	t2,62(s0)
    80003624:	00730463          	beq	t1,t2,8000362c <userstart+0xb84>
    80003628:	0f80106f          	j	80004720 <fail>
    8000362c:	05300193          	li	gp,83
    80003630:	4f4e5337          	lui	t1,0x4f4e5
    80003634:	d4c3031b          	addiw	t1,t1,-692 # 4f4e4d4c <_start-0x30b1b2b4>
    80003638:	02642fa3          	sw	t1,63(s0)
    8000363c:	03f46383          	lwu	t2,63(s0)
    80003640:	00730463          	beq	t1,t2,80003648 <userstart+0xba0>
    80003644:	0dc0106f          	j	80004720 <fail>
    80003648:	05400193          	li	gp,84
    8000364c:	05756337          	lui	t1,0x5756
    80003650:	5553031b          	addiw	t1,t1,1365 # 5756555 <_start-0x7a8a9aab>
    80003654:	00c31313          	slli	t1,t1,0xc
    80003658:	45330313          	addi	t1,t1,1107
    8000365c:	00c31313          	slli	t1,t1,0xc
    80003660:	52530313          	addi	t1,t1,1317
    80003664:	00c31313          	slli	t1,t1,0xc
    80003668:	15030313          	addi	t1,t1,336
    8000366c:	02643ca3          	sd	t1,57(s0)
    80003670:	03943383          	ld	t2,57(s0)
    80003674:	00730463          	beq	t1,t2,8000367c <userstart+0xbd4>
    80003678:	0a80106f          	j	80004720 <fail>
    8000367c:	05500193          	li	gp,85
    80003680:	017d8337          	lui	t1,0x17d8
    80003684:	9753031b          	addiw	t1,t1,-1675 # 17d7975 <_start-0x7e82868b>
    80003688:	00c31313          	slli	t1,t1,0xc
    8000368c:	71730313          	addi	t1,t1,1815
    80003690:	00d31313          	slli	t1,t1,0xd
    80003694:	ad330313          	addi	t1,t1,-1325
    80003698:	00d31313          	slli	t1,t1,0xd
    8000369c:	95830313          	addi	t1,t1,-1704
    800036a0:	02643d23          	sd	t1,58(s0)
    800036a4:	03a43383          	ld	t2,58(s0)
    800036a8:	00730463          	beq	t1,t2,800036b0 <userstart+0xc08>
    800036ac:	0740106f          	j	80004720 <fail>
    800036b0:	05600193          	li	gp,86
    800036b4:	00ced337          	lui	t1,0xced
    800036b8:	ccb3031b          	addiw	t1,t1,-821 # cecccb <_start-0x7f313335>
    800036bc:	00d31313          	slli	t1,t1,0xd
    800036c0:	91930313          	addi	t1,t1,-1767
    800036c4:	00d31313          	slli	t1,t1,0xd
    800036c8:	b1330313          	addi	t1,t1,-1261
    800036cc:	00d31313          	slli	t1,t1,0xd
    800036d0:	16030313          	addi	t1,t1,352
    800036d4:	02643da3          	sd	t1,59(s0)
    800036d8:	03b43383          	ld	t2,59(s0)
    800036dc:	00730463          	beq	t1,t2,800036e4 <userstart+0xc3c>
    800036e0:	0400106f          	j	80004720 <fail>
    800036e4:	05700193          	li	gp,87
    800036e8:	06f6e337          	lui	t1,0x6f6e
    800036ec:	6d73031b          	addiw	t1,t1,1751 # 6f6e6d7 <_start-0x79091929>
    800036f0:	00c31313          	slli	t1,t1,0xc
    800036f4:	c6b30313          	addi	t1,t1,-917
    800036f8:	00c31313          	slli	t1,t1,0xc
    800036fc:	6a730313          	addi	t1,t1,1703
    80003700:	00c31313          	slli	t1,t1,0xc
    80003704:	96830313          	addi	t1,t1,-1688
    80003708:	02643e23          	sd	t1,60(s0)
    8000370c:	03c43383          	ld	t2,60(s0)
    80003710:	00730463          	beq	t1,t2,80003718 <userstart+0xc70>
    80003714:	00c0106f          	j	80004720 <fail>
    80003718:	05800193          	li	gp,88
    8000371c:	07776337          	lui	t1,0x7776
    80003720:	7573031b          	addiw	t1,t1,1879 # 7776757 <_start-0x788898a9>
    80003724:	00c31313          	slli	t1,t1,0xc
    80003728:	47330313          	addi	t1,t1,1139
    8000372c:	00c31313          	slli	t1,t1,0xc
    80003730:	72730313          	addi	t1,t1,1831
    80003734:	00c31313          	slli	t1,t1,0xc
    80003738:	17030313          	addi	t1,t1,368
    8000373c:	02643ea3          	sd	t1,61(s0)
    80003740:	03d43383          	ld	t2,61(s0)
    80003744:	7c731ee3          	bne	t1,t2,80004720 <fail>
    80003748:	05900193          	li	gp,89
    8000374c:	00ff0337          	lui	t1,0xff0
    80003750:	cfb3031b          	addiw	t1,t1,-773 # fefcfb <_start-0x7f010305>
    80003754:	00c31313          	slli	t1,t1,0xc
    80003758:	f8f30313          	addi	t1,t1,-113
    8000375c:	00c31313          	slli	t1,t1,0xc
    80003760:	6f530313          	addi	t1,t1,1781
    80003764:	00f31313          	slli	t1,t1,0xf
    80003768:	97830313          	addi	t1,t1,-1672
    8000376c:	02643f23          	sd	t1,62(s0)
    80003770:	03e43383          	ld	t2,62(s0)
    80003774:	7a7316e3          	bne	t1,t2,80004720 <fail>
    80003778:	05a00193          	li	gp,90
    8000377c:	fff0f337          	lui	t1,0xfff0f
    80003780:	0d13031b          	addiw	t1,t1,209 # fffffffffff0f0d1 <freelist_head+0xffffffff7ff040c9>
    80003784:	00c31313          	slli	t1,t1,0xc
    80003788:	b0930313          	addi	t1,t1,-1271
    8000378c:	01031313          	slli	t1,t1,0x10
    80003790:	70530313          	addi	t1,t1,1797
    80003794:	00f31313          	slli	t1,t1,0xf
    80003798:	18030313          	addi	t1,t1,384
    8000379c:	02643fa3          	sd	t1,63(s0)
    800037a0:	03f43383          	ld	t2,63(s0)
    800037a4:	76731ee3          	bne	t1,t2,80004720 <fail>
    800037a8:	05b00193          	li	gp,91
    800037ac:	0000a337          	lui	t1,0xa
    800037b0:	9983031b          	addiw	t1,t1,-1640 # 9998 <_start-0x7fff6668>
    800037b4:	f9800393          	li	t2,-104
    800037b8:	006410a3          	sh	t1,1(s0)
    800037bc:	00140e03          	lb	t3,1(s0)
    800037c0:	77c390e3          	bne	t2,t3,80004720 <fail>
    800037c4:	05c00193          	li	gp,92
    800037c8:	0000a337          	lui	t1,0xa
    800037cc:	b9a3031b          	addiw	t1,t1,-1126 # 9b9a <_start-0x7fff6466>
    800037d0:	f9b00393          	li	t2,-101
    800037d4:	006410a3          	sh	t1,1(s0)
    800037d8:	00240e03          	lb	t3,2(s0)
    800037dc:	75c392e3          	bne	t2,t3,80004720 <fail>
    800037e0:	05d00193          	li	gp,93
    800037e4:	0000a337          	lui	t1,0xa
    800037e8:	d9c3031b          	addiw	t1,t1,-612 # 9d9c <_start-0x7fff6264>
    800037ec:	09c00393          	li	t2,156
    800037f0:	006410a3          	sh	t1,1(s0)
    800037f4:	00144e03          	lbu	t3,1(s0)
    800037f8:	73c394e3          	bne	t2,t3,80004720 <fail>
    800037fc:	05e00193          	li	gp,94
    80003800:	0000a337          	lui	t1,0xa
    80003804:	f9e3031b          	addiw	t1,t1,-98 # 9f9e <_start-0x7fff6062>
    80003808:	09f00393          	li	t2,159
    8000380c:	006410a3          	sh	t1,1(s0)
    80003810:	00244e03          	lbu	t3,2(s0)
    80003814:	71c396e3          	bne	t2,t3,80004720 <fail>
    80003818:	05f00193          	li	gp,95
    8000381c:	00052337          	lui	t1,0x52
    80003820:	d153031b          	addiw	t1,t1,-747 # 51d15 <_start-0x7ffae2eb>
    80003824:	00d31313          	slli	t1,t1,0xd
    80003828:	1a030313          	addi	t1,t1,416
    8000382c:	fa000393          	li	t2,-96
    80003830:	006420a3          	sw	t1,1(s0)
    80003834:	00140e03          	lb	t3,1(s0)
    80003838:	6fc394e3          	bne	t2,t3,80004720 <fail>
    8000383c:	06000193          	li	gp,96
    80003840:	00054337          	lui	t1,0x54
    80003844:	d353031b          	addiw	t1,t1,-715 # 53d35 <_start-0x7ffac2cb>
    80003848:	00d31313          	slli	t1,t1,0xd
    8000384c:	5a430313          	addi	t1,t1,1444
    80003850:	0a500393          	li	t2,165
    80003854:	00642123          	sw	t1,2(s0)
    80003858:	00344e03          	lbu	t3,3(s0)
    8000385c:	6dc392e3          	bne	t2,t3,80004720 <fail>
    80003860:	06100193          	li	gp,97
    80003864:	000ac337          	lui	t1,0xac
    80003868:	aab3031b          	addiw	t1,t1,-1365 # abaab <_start-0x7ff54555>
    8000386c:	00c31313          	slli	t1,t1,0xc
    80003870:	9a830313          	addi	t1,t1,-1624
    80003874:	ffffb3b7          	lui	t2,0xffffb
    80003878:	aa93839b          	addiw	t2,t2,-1367 # ffffffffffffaaa9 <freelist_head+0xffffffff7ffefaa1>
    8000387c:	006421a3          	sw	t1,3(s0)
    80003880:	00441e03          	lh	t3,4(s0)
    80003884:	69c39ee3          	bne	t2,t3,80004720 <fail>
    80003888:	06200193          	li	gp,98
    8000388c:	000b0337          	lui	t1,0xb0
    80003890:	aeb3031b          	addiw	t1,t1,-1301 # afaeb <_start-0x7ff50515>
    80003894:	00c31313          	slli	t1,t1,0xc
    80003898:	dac30313          	addi	t1,t1,-596
    8000389c:	0000b3b7          	lui	t2,0xb
    800038a0:	fae3839b          	addiw	t2,t2,-82 # afae <_start-0x7fff5052>
    800038a4:	006421a3          	sw	t1,3(s0)
    800038a8:	00545e03          	lhu	t3,5(s0)
    800038ac:	67c39ae3          	bne	t2,t3,80004720 <fail>
    800038b0:	06300193          	li	gp,99
    800038b4:	fedee337          	lui	t1,0xfedee
    800038b8:	ad73031b          	addiw	t1,t1,-1321 # fffffffffededad7 <freelist_head+0xffffffff7ede2acf>
    800038bc:	00c31313          	slli	t1,t1,0xc
    800038c0:	d2d30313          	addi	t1,t1,-723
    800038c4:	00e31313          	slli	t1,t1,0xe
    800038c8:	b2b30313          	addi	t1,t1,-1237
    800038cc:	00c31313          	slli	t1,t1,0xc
    800038d0:	1b030313          	addi	t1,t1,432
    800038d4:	fb600393          	li	t2,-74
    800038d8:	006430a3          	sd	t1,1(s0)
    800038dc:	00740e03          	lb	t3,7(s0)
    800038e0:	65c390e3          	bne	t2,t3,80004720 <fail>
    800038e4:	06400193          	li	gp,100
    800038e8:	feff0337          	lui	t1,0xfeff0
    800038ec:	af73031b          	addiw	t1,t1,-1289 # fffffffffefefaf7 <freelist_head+0xffffffff7efe4aef>
    800038f0:	00c31313          	slli	t1,t1,0xc
    800038f4:	f2f30313          	addi	t1,t1,-209
    800038f8:	00c31313          	slli	t1,t1,0xc
    800038fc:	eeb30313          	addi	t1,t1,-277
    80003900:	00e31313          	slli	t1,t1,0xe
    80003904:	9b830313          	addi	t1,t1,-1608
    80003908:	0b900393          	li	t2,185
    8000390c:	00643123          	sd	t1,2(s0)
    80003910:	00344e03          	lbu	t3,3(s0)
    80003914:	61c396e3          	bne	t2,t3,80004720 <fail>
    80003918:	06500193          	li	gp,101
    8000391c:	ff1f2337          	lui	t1,0xff1f2
    80003920:	b173031b          	addiw	t1,t1,-1257 # ffffffffff1f1b17 <freelist_head+0xffffffff7f1e6b0f>
    80003924:	00c31313          	slli	t1,t1,0xc
    80003928:	13130313          	addi	t1,t1,305
    8000392c:	00c31313          	slli	t1,t1,0xc
    80003930:	f0b30313          	addi	t1,t1,-245
    80003934:	00e31313          	slli	t1,t1,0xe
    80003938:	1c030313          	addi	t1,t1,448
    8000393c:	ffffc3b7          	lui	t2,0xffffc
    80003940:	7c63839b          	addiw	t2,t2,1990 # ffffffffffffc7c6 <freelist_head+0xffffffff7fff17be>
    80003944:	006431a3          	sd	t1,3(s0)
    80003948:	00941e03          	lh	t3,9(s0)
    8000394c:	5dc39ae3          	bne	t2,t3,80004720 <fail>
    80003950:	06600193          	li	gp,102
    80003954:	ff3f4337          	lui	t1,0xff3f4
    80003958:	b373031b          	addiw	t1,t1,-1225 # ffffffffff3f3b37 <freelist_head+0xffffffff7f3e8b2f>
    8000395c:	00c31313          	slli	t1,t1,0xc
    80003960:	33330313          	addi	t1,t1,819
    80003964:	00e31313          	slli	t1,t1,0xe
    80003968:	cad30313          	addi	t1,t1,-851
    8000396c:	00c31313          	slli	t1,t1,0xc
    80003970:	9c830313          	addi	t1,t1,-1592
    80003974:	0000d3b7          	lui	t2,0xd
    80003978:	ac93839b          	addiw	t2,t2,-1335 # cac9 <_start-0x7fff3537>
    8000397c:	00643223          	sd	t1,4(s0)
    80003980:	00545e03          	lhu	t3,5(s0)
    80003984:	59c39ee3          	bne	t2,t3,80004720 <fail>
    80003988:	06700193          	li	gp,103
    8000398c:	ff5f6337          	lui	t1,0xff5f6
    80003990:	b573031b          	addiw	t1,t1,-1193 # ffffffffff5f5b57 <freelist_head+0xffffffff7f5eab4f>
    80003994:	00c31313          	slli	t1,t1,0xc
    80003998:	53530313          	addi	t1,t1,1333
    8000399c:	00e31313          	slli	t1,t1,0xe
    800039a0:	d2d30313          	addi	t1,t1,-723
    800039a4:	00c31313          	slli	t1,t1,0xc
    800039a8:	1d030313          	addi	t1,t1,464
    800039ac:	d7d6d3b7          	lui	t2,0xd7d6d
    800039b0:	5d43839b          	addiw	t2,t2,1492 # ffffffffd7d6d5d4 <freelist_head+0xffffffff57d625cc>
    800039b4:	006432a3          	sd	t1,5(s0)
    800039b8:	00942e03          	lw	t3,9(s0)
    800039bc:	57c392e3          	bne	t2,t3,80004720 <fail>
    800039c0:	06800193          	li	gp,104
    800039c4:	ff7f8337          	lui	t1,0xff7f8
    800039c8:	b773031b          	addiw	t1,t1,-1161 # ffffffffff7f7b77 <freelist_head+0xffffffff7f7ecb6f>
    800039cc:	00c31313          	slli	t1,t1,0xc
    800039d0:	73730313          	addi	t1,t1,1847
    800039d4:	00d31313          	slli	t1,t1,0xd
    800039d8:	ed730313          	addi	t1,t1,-297
    800039dc:	00d31313          	slli	t1,t1,0xd
    800039e0:	9d830313          	addi	t1,t1,-1576
    800039e4:	dddce3b7          	lui	t2,0xdddce
    800039e8:	bda3839b          	addiw	t2,t2,-1062 # ffffffffdddcdbda <freelist_head+0xffffffff5ddc2bd2>
    800039ec:	00643323          	sd	t1,6(s0)
    800039f0:	00842e03          	lw	t3,8(s0)
    800039f4:	53c396e3          	bne	t2,t3,80004720 <fail>
    800039f8:	06900193          	li	gp,105
    800039fc:	fff3f337          	lui	t1,0xfff3f
    80003a00:	3733031b          	addiw	t1,t1,883 # fffffffffff3f373 <freelist_head+0xffffffff7ff3436b>
    80003a04:	00f31313          	slli	t1,t1,0xf
    80003a08:	93930313          	addi	t1,t1,-1735
    80003a0c:	00d31313          	slli	t1,t1,0xd
    80003a10:	f1730313          	addi	t1,t1,-233
    80003a14:	00d31313          	slli	t1,t1,0xd
    80003a18:	1e030313          	addi	t1,t1,480
    80003a1c:	000723b7          	lui	t2,0x72
    80003a20:	71f3839b          	addiw	t2,t2,1823 # 7271f <_start-0x7ff8d8e1>
    80003a24:	00d39393          	slli	t2,t2,0xd
    80003a28:	2e138393          	addi	t2,t2,737
    80003a2c:	006433a3          	sd	t1,7(s0)
    80003a30:	00846e03          	lwu	t3,8(s0)
    80003a34:	4fc396e3          	bne	t2,t3,80004720 <fail>
    80003a38:	06a00193          	li	gp,106
    80003a3c:	0000f337          	lui	t1,0xf
    80003a40:	9e83031b          	addiw	t1,t1,-1560 # e9e8 <_start-0x7fff1618>
    80003a44:	fe800393          	li	t2,-24
    80003a48:	00641fa3          	sh	t1,31(s0)
    80003a4c:	01f40e03          	lb	t3,31(s0)
    80003a50:	4dc398e3          	bne	t2,t3,80004720 <fail>
    80003a54:	06b00193          	li	gp,107
    80003a58:	0000f337          	lui	t1,0xf
    80003a5c:	bea3031b          	addiw	t1,t1,-1046 # ebea <_start-0x7fff1416>
    80003a60:	feb00393          	li	t2,-21
    80003a64:	00641fa3          	sh	t1,31(s0)
    80003a68:	02040e03          	lb	t3,32(s0)
    80003a6c:	4bc39ae3          	bne	t2,t3,80004720 <fail>
    80003a70:	06c00193          	li	gp,108
    80003a74:	0000f337          	lui	t1,0xf
    80003a78:	dec3031b          	addiw	t1,t1,-532 # edec <_start-0x7fff1214>
    80003a7c:	0ec00393          	li	t2,236
    80003a80:	00641fa3          	sh	t1,31(s0)
    80003a84:	01f44e03          	lbu	t3,31(s0)
    80003a88:	49c39ce3          	bne	t2,t3,80004720 <fail>
    80003a8c:	06d00193          	li	gp,109
    80003a90:	0000f337          	lui	t1,0xf
    80003a94:	fee3031b          	addiw	t1,t1,-18 # efee <_start-0x7fff1012>
    80003a98:	0ef00393          	li	t2,239
    80003a9c:	00641fa3          	sh	t1,31(s0)
    80003aa0:	02044e03          	lbu	t3,32(s0)
    80003aa4:	47c39ee3          	bne	t2,t3,80004720 <fail>
    80003aa8:	06e00193          	li	gp,110
    80003aac:	000f4337          	lui	t1,0xf4
    80003ab0:	f2f3031b          	addiw	t1,t1,-209 # f3f2f <_start-0x7ff0c0d1>
    80003ab4:	00c31313          	slli	t1,t1,0xc
    80003ab8:	1f030313          	addi	t1,t1,496
    80003abc:	ff000393          	li	t2,-16
    80003ac0:	00642ea3          	sw	t1,29(s0)
    80003ac4:	01d40e03          	lb	t3,29(s0)
    80003ac8:	45c39ce3          	bne	t2,t3,80004720 <fail>
    80003acc:	06f00193          	li	gp,111
    80003ad0:	000f8337          	lui	t1,0xf8
    80003ad4:	f6f3031b          	addiw	t1,t1,-145 # f7f6f <_start-0x7ff08091>
    80003ad8:	00c31313          	slli	t1,t1,0xc
    80003adc:	5f430313          	addi	t1,t1,1524
    80003ae0:	0f600393          	li	t2,246
    80003ae4:	00642f23          	sw	t1,30(s0)
    80003ae8:	02044e03          	lbu	t3,32(s0)
    80003aec:	43c39ae3          	bne	t2,t3,80004720 <fail>
    80003af0:	07000193          	li	gp,112
    80003af4:	00010337          	lui	t1,0x10
    80003af8:	bfb3031b          	addiw	t1,t1,-1029 # fbfb <_start-0x7fff0405>
    80003afc:	01031313          	slli	t1,t1,0x10
    80003b00:	9f830313          	addi	t1,t1,-1544
    80003b04:	bfa00393          	li	t2,-1030
    80003b08:	00642ea3          	sw	t1,29(s0)
    80003b0c:	01f41e03          	lh	t3,31(s0)
    80003b10:	41c398e3          	bne	t2,t3,80004720 <fail>
    80003b14:	07100193          	li	gp,113
    80003b18:	00010337          	lui	t1,0x10
    80003b1c:	fff3031b          	addiw	t1,t1,-1 # ffff <_start-0x7fff0001>
    80003b20:	01031313          	slli	t1,t1,0x10
    80003b24:	dfc30313          	addi	t1,t1,-516
    80003b28:	000103b7          	lui	t2,0x10
    80003b2c:	dfc3839b          	addiw	t2,t2,-516 # fdfc <_start-0x7fff0204>
    80003b30:	00642fa3          	sw	t1,31(s0)
    80003b34:	01f45e03          	lhu	t3,31(s0)
    80003b38:	3fc394e3          	bne	t2,t3,80004720 <fail>
    80003b3c:	07200193          	li	gp,114
    80003b40:	01c18337          	lui	t1,0x1c18
    80003b44:	1413031b          	addiw	t1,t1,321 # 1c18141 <_start-0x7e3e7ebf>
    80003b48:	01131313          	slli	t1,t1,0x11
    80003b4c:	18130313          	addi	t1,t1,385
    80003b50:	01131313          	slli	t1,t1,0x11
    80003b54:	10030313          	addi	t1,t1,256
    80003b58:	00700393          	li	t2,7
    80003b5c:	00643ca3          	sd	t1,25(s0)
    80003b60:	02040e03          	lb	t3,32(s0)
    80003b64:	3bc39ee3          	bne	t2,t3,80004720 <fail>
    80003b68:	07300193          	li	gp,115
    80003b6c:	00f0e337          	lui	t1,0xf0e
    80003b70:	0d13031b          	addiw	t1,t1,209 # f0e0d1 <_start-0x7f0f1f2f>
    80003b74:	00c31313          	slli	t1,t1,0xc
    80003b78:	c0b30313          	addi	t1,t1,-1013
    80003b7c:	00c31313          	slli	t1,t1,0xc
    80003b80:	0a130313          	addi	t1,t1,161
    80003b84:	00c31313          	slli	t1,t1,0xc
    80003b88:	90830313          	addi	t1,t1,-1784
    80003b8c:	00f00393          	li	t2,15
    80003b90:	00643d23          	sd	t1,26(s0)
    80003b94:	02144e03          	lbu	t3,33(s0)
    80003b98:	39c394e3          	bne	t2,t3,80004720 <fail>
    80003b9c:	07400193          	li	gp,116
    80003ba0:	01716337          	lui	t1,0x1716
    80003ba4:	1513031b          	addiw	t1,t1,337 # 1716151 <_start-0x7e8e9eaf>
    80003ba8:	00c31313          	slli	t1,t1,0xc
    80003bac:	41330313          	addi	t1,t1,1043
    80003bb0:	00c31313          	slli	t1,t1,0xc
    80003bb4:	12130313          	addi	t1,t1,289
    80003bb8:	00c31313          	slli	t1,t1,0xc
    80003bbc:	11030313          	addi	t1,t1,272
    80003bc0:	000013b7          	lui	t2,0x1
    80003bc4:	5143839b          	addiw	t2,t2,1300 # 1514 <_start-0x7fffeaec>
    80003bc8:	00643da3          	sd	t1,27(s0)
    80003bcc:	01f41e03          	lh	t3,31(s0)
    80003bd0:	35c398e3          	bne	t2,t3,80004720 <fail>
    80003bd4:	07500193          	li	gp,117
    80003bd8:	001f2337          	lui	t1,0x1f2
    80003bdc:	e1d3031b          	addiw	t1,t1,-483 # 1f1e1d <_start-0x7fe0e1e3>
    80003be0:	00e31313          	slli	t1,t1,0xe
    80003be4:	70730313          	addi	t1,t1,1799
    80003be8:	00d31313          	slli	t1,t1,0xd
    80003bec:	8d130313          	addi	t1,t1,-1839
    80003bf0:	00d31313          	slli	t1,t1,0xd
    80003bf4:	91830313          	addi	t1,t1,-1768
    80003bf8:	000023b7          	lui	t2,0x2
    80003bfc:	c1b3839b          	addiw	t2,t2,-997 # 1c1b <_start-0x7fffe3e5>
    80003c00:	00643e23          	sd	t1,28(s0)
    80003c04:	01f45e03          	lhu	t3,31(s0)
    80003c08:	31c39ce3          	bne	t2,t3,80004720 <fail>
    80003c0c:	07600193          	li	gp,118
    80003c10:	009ca337          	lui	t1,0x9ca
    80003c14:	8953031b          	addiw	t1,t1,-1899 # 9c9895 <_start-0x7f63676b>
    80003c18:	00c31313          	slli	t1,t1,0xc
    80003c1c:	90930313          	addi	t1,t1,-1783
    80003c20:	00d31313          	slli	t1,t1,0xd
    80003c24:	91130313          	addi	t1,t1,-1775
    80003c28:	00d31313          	slli	t1,t1,0xd
    80003c2c:	12030313          	addi	t1,t1,288
    80003c30:	232223b7          	lui	t2,0x23222
    80003c34:	1203839b          	addiw	t2,t2,288 # 23222120 <_start-0x5cdddee0>
    80003c38:	00643ea3          	sd	t1,29(s0)
    80003c3c:	01d42e03          	lw	t3,29(s0)
    80003c40:	2fc390e3          	bne	t2,t3,80004720 <fail>
    80003c44:	07700193          	li	gp,119
    80003c48:	02f2e337          	lui	t1,0x2f2e
    80003c4c:	2d33031b          	addiw	t1,t1,723 # 2f2e2d3 <_start-0x7d0d1d2d>
    80003c50:	00c31313          	slli	t1,t1,0xc
    80003c54:	c2b30313          	addi	t1,t1,-981
    80003c58:	00c31313          	slli	t1,t1,0xc
    80003c5c:	2a330313          	addi	t1,t1,675
    80003c60:	00c31313          	slli	t1,t1,0xc
    80003c64:	92830313          	addi	t1,t1,-1752
    80003c68:	2b2a33b7          	lui	t2,0x2b2a3
    80003c6c:	9283839b          	addiw	t2,t2,-1752 # 2b2a2928 <_start-0x54d5d6d8>
    80003c70:	00643f23          	sd	t1,30(s0)
    80003c74:	01e42e03          	lw	t3,30(s0)
    80003c78:	2bc394e3          	bne	t2,t3,80004720 <fail>
    80003c7c:	07800193          	li	gp,120
    80003c80:	03736337          	lui	t1,0x3736
    80003c84:	3533031b          	addiw	t1,t1,851 # 3736353 <_start-0x7c8c9cad>
    80003c88:	00c31313          	slli	t1,t1,0xc
    80003c8c:	43330313          	addi	t1,t1,1075
    80003c90:	00c31313          	slli	t1,t1,0xc
    80003c94:	32330313          	addi	t1,t1,803
    80003c98:	00c31313          	slli	t1,t1,0xc
    80003c9c:	13030313          	addi	t1,t1,304
    80003ca0:	333233b7          	lui	t2,0x33323
    80003ca4:	1303839b          	addiw	t2,t2,304 # 33323130 <_start-0x4ccdced0>
    80003ca8:	00643fa3          	sd	t1,31(s0)
    80003cac:	01f46e03          	lwu	t3,31(s0)
    80003cb0:	27c398e3          	bne	t2,t3,80004720 <fail>
    80003cb4:	07900193          	li	gp,121
    80003cb8:	00005337          	lui	t1,0x5
    80003cbc:	9483031b          	addiw	t1,t1,-1720 # 4948 <_start-0x7fffb6b8>
    80003cc0:	04800393          	li	t2,72
    80003cc4:	02641fa3          	sh	t1,63(s0)
    80003cc8:	03f40e03          	lb	t3,63(s0)
    80003ccc:	25c39ae3          	bne	t2,t3,80004720 <fail>
    80003cd0:	07a00193          	li	gp,122
    80003cd4:	00005337          	lui	t1,0x5
    80003cd8:	b4a3031b          	addiw	t1,t1,-1206 # 4b4a <_start-0x7fffb4b6>
    80003cdc:	04b00393          	li	t2,75
    80003ce0:	02641fa3          	sh	t1,63(s0)
    80003ce4:	04040e03          	lb	t3,64(s0)
    80003ce8:	23c39ce3          	bne	t2,t3,80004720 <fail>
    80003cec:	07b00193          	li	gp,123
    80003cf0:	00005337          	lui	t1,0x5
    80003cf4:	d4c3031b          	addiw	t1,t1,-692 # 4d4c <_start-0x7fffb2b4>
    80003cf8:	04c00393          	li	t2,76
    80003cfc:	02641fa3          	sh	t1,63(s0)
    80003d00:	03f44e03          	lbu	t3,63(s0)
    80003d04:	21c39ee3          	bne	t2,t3,80004720 <fail>
    80003d08:	07c00193          	li	gp,124
    80003d0c:	00005337          	lui	t1,0x5
    80003d10:	f4e3031b          	addiw	t1,t1,-178 # 4f4e <_start-0x7fffb0b2>
    80003d14:	04f00393          	li	t2,79
    80003d18:	02641fa3          	sh	t1,63(s0)
    80003d1c:	04044e03          	lbu	t3,64(s0)
    80003d20:	21c390e3          	bne	t2,t3,80004720 <fail>
    80003d24:	07d00193          	li	gp,125
    80003d28:	53525337          	lui	t1,0x53525
    80003d2c:	1503031b          	addiw	t1,t1,336 # 53525150 <_start-0x2cadaeb0>
    80003d30:	05000393          	li	t2,80
    80003d34:	02642ea3          	sw	t1,61(s0)
    80003d38:	03d40e03          	lb	t3,61(s0)
    80003d3c:	1fc392e3          	bne	t2,t3,80004720 <fail>
    80003d40:	07e00193          	li	gp,126
    80003d44:	57565337          	lui	t1,0x57565
    80003d48:	5543031b          	addiw	t1,t1,1364 # 57565554 <_start-0x28a9aaac>
    80003d4c:	05600393          	li	t2,86
    80003d50:	02642f23          	sw	t1,62(s0)
    80003d54:	04044e03          	lbu	t3,64(s0)
    80003d58:	1dc394e3          	bne	t2,t3,80004720 <fail>
    80003d5c:	07f00193          	li	gp,127
    80003d60:	5b5a6337          	lui	t1,0x5b5a6
    80003d64:	9583031b          	addiw	t1,t1,-1704 # 5b5a5958 <_start-0x24a5a6a8>
    80003d68:	000063b7          	lui	t2,0x6
    80003d6c:	b5a3839b          	addiw	t2,t2,-1190 # 5b5a <_start-0x7fffa4a6>
    80003d70:	02642ea3          	sw	t1,61(s0)
    80003d74:	03f41e03          	lh	t3,63(s0)
    80003d78:	1bc394e3          	bne	t2,t3,80004720 <fail>
    80003d7c:	08000193          	li	gp,128
    80003d80:	5f5e6337          	lui	t1,0x5f5e6
    80003d84:	d5c3031b          	addiw	t1,t1,-676 # 5f5e5d5c <_start-0x20a1a2a4>
    80003d88:	000063b7          	lui	t2,0x6
    80003d8c:	d5c3839b          	addiw	t2,t2,-676 # 5d5c <_start-0x7fffa2a4>
    80003d90:	02642fa3          	sw	t1,63(s0)
    80003d94:	03f45e03          	lhu	t3,63(s0)
    80003d98:	19c394e3          	bne	t2,t3,80004720 <fail>
    80003d9c:	08100193          	li	gp,129
    80003da0:	00ced337          	lui	t1,0xced
    80003da4:	ccb3031b          	addiw	t1,t1,-821 # cecccb <_start-0x7f313335>
    80003da8:	00d31313          	slli	t1,t1,0xd
    80003dac:	91930313          	addi	t1,t1,-1767
    80003db0:	00d31313          	slli	t1,t1,0xd
    80003db4:	b1330313          	addi	t1,t1,-1261
    80003db8:	00d31313          	slli	t1,t1,0xd
    80003dbc:	16030313          	addi	t1,t1,352
    80003dc0:	06700393          	li	t2,103
    80003dc4:	02643ca3          	sd	t1,57(s0)
    80003dc8:	04040e03          	lb	t3,64(s0)
    80003dcc:	15c39ae3          	bne	t2,t3,80004720 <fail>
    80003dd0:	08200193          	li	gp,130
    80003dd4:	06f6e337          	lui	t1,0x6f6e
    80003dd8:	6d73031b          	addiw	t1,t1,1751 # 6f6e6d7 <_start-0x79091929>
    80003ddc:	00c31313          	slli	t1,t1,0xc
    80003de0:	c6b30313          	addi	t1,t1,-917
    80003de4:	00c31313          	slli	t1,t1,0xc
    80003de8:	6a730313          	addi	t1,t1,1703
    80003dec:	00c31313          	slli	t1,t1,0xc
    80003df0:	96830313          	addi	t1,t1,-1688
    80003df4:	06f00393          	li	t2,111
    80003df8:	02643d23          	sd	t1,58(s0)
    80003dfc:	04144e03          	lbu	t3,65(s0)
    80003e00:	13c390e3          	bne	t2,t3,80004720 <fail>
    80003e04:	08300193          	li	gp,131
    80003e08:	07776337          	lui	t1,0x7776
    80003e0c:	7573031b          	addiw	t1,t1,1879 # 7776757 <_start-0x788898a9>
    80003e10:	00c31313          	slli	t1,t1,0xc
    80003e14:	47330313          	addi	t1,t1,1139
    80003e18:	00c31313          	slli	t1,t1,0xc
    80003e1c:	72730313          	addi	t1,t1,1831
    80003e20:	00c31313          	slli	t1,t1,0xc
    80003e24:	17030313          	addi	t1,t1,368
    80003e28:	000073b7          	lui	t2,0x7
    80003e2c:	5743839b          	addiw	t2,t2,1396 # 7574 <_start-0x7fff8a8c>
    80003e30:	02643da3          	sd	t1,59(s0)
    80003e34:	03f41e03          	lh	t3,63(s0)
    80003e38:	0fc394e3          	bne	t2,t3,80004720 <fail>
    80003e3c:	08400193          	li	gp,132
    80003e40:	00ff0337          	lui	t1,0xff0
    80003e44:	cfb3031b          	addiw	t1,t1,-773 # fefcfb <_start-0x7f010305>
    80003e48:	00c31313          	slli	t1,t1,0xc
    80003e4c:	f8f30313          	addi	t1,t1,-113
    80003e50:	00c31313          	slli	t1,t1,0xc
    80003e54:	6f530313          	addi	t1,t1,1781
    80003e58:	00f31313          	slli	t1,t1,0xf
    80003e5c:	97830313          	addi	t1,t1,-1672
    80003e60:	000083b7          	lui	t2,0x8
    80003e64:	c7b3839b          	addiw	t2,t2,-901 # 7c7b <_start-0x7fff8385>
    80003e68:	02643e23          	sd	t1,60(s0)
    80003e6c:	03f45e03          	lhu	t3,63(s0)
    80003e70:	0bc398e3          	bne	t2,t3,80004720 <fail>
    80003e74:	08500193          	li	gp,133
    80003e78:	fff0f337          	lui	t1,0xfff0f
    80003e7c:	0d13031b          	addiw	t1,t1,209 # fffffffffff0f0d1 <freelist_head+0xffffffff7ff040c9>
    80003e80:	00c31313          	slli	t1,t1,0xc
    80003e84:	b0930313          	addi	t1,t1,-1271
    80003e88:	01031313          	slli	t1,t1,0x10
    80003e8c:	70530313          	addi	t1,t1,1797
    80003e90:	00f31313          	slli	t1,t1,0xf
    80003e94:	18030313          	addi	t1,t1,384
    80003e98:	838283b7          	lui	t2,0x83828
    80003e9c:	1803839b          	addiw	t2,t2,384 # ffffffff83828180 <freelist_head+0xffffffff0381d178>
    80003ea0:	02643ea3          	sd	t1,61(s0)
    80003ea4:	03d42e03          	lw	t3,61(s0)
    80003ea8:	07c39ce3          	bne	t2,t3,80004720 <fail>
    80003eac:	08600193          	li	gp,134
    80003eb0:	ff1f2337          	lui	t1,0xff1f2
    80003eb4:	d1b3031b          	addiw	t1,t1,-741 # ffffffffff1f1d1b <freelist_head+0xffffffff7f1e6d13>
    80003eb8:	00d31313          	slli	t1,t1,0xd
    80003ebc:	32330313          	addi	t1,t1,803
    80003ec0:	00e31313          	slli	t1,t1,0xe
    80003ec4:	8a930313          	addi	t1,t1,-1879
    80003ec8:	00c31313          	slli	t1,t1,0xc
    80003ecc:	98830313          	addi	t1,t1,-1656
    80003ed0:	8b8a93b7          	lui	t2,0x8b8a9
    80003ed4:	9883839b          	addiw	t2,t2,-1656 # ffffffff8b8a8988 <freelist_head+0xffffffff0b89d980>
    80003ed8:	02643f23          	sd	t1,62(s0)
    80003edc:	03e42e03          	lw	t3,62(s0)
    80003ee0:	05c390e3          	bne	t2,t3,80004720 <fail>
    80003ee4:	08700193          	li	gp,135
    80003ee8:	ff2f3337          	lui	t1,0xff2f3
    80003eec:	d2b3031b          	addiw	t1,t1,-725 # ffffffffff2f2d2b <freelist_head+0xffffffff7f2e7d23>
    80003ef0:	00d31313          	slli	t1,t1,0xd
    80003ef4:	52530313          	addi	t1,t1,1317
    80003ef8:	00e31313          	slli	t1,t1,0xe
    80003efc:	92930313          	addi	t1,t1,-1751
    80003f00:	00c31313          	slli	t1,t1,0xc
    80003f04:	19030313          	addi	t1,t1,400
    80003f08:	000943b7          	lui	t2,0x94
    80003f0c:	9293839b          	addiw	t2,t2,-1751 # 93929 <_start-0x7ff6c6d7>
    80003f10:	00c39393          	slli	t2,t2,0xc
    80003f14:	19038393          	addi	t2,t2,400
    80003f18:	02643fa3          	sd	t1,63(s0)
    80003f1c:	03f46e03          	lwu	t3,63(s0)
    80003f20:	01c390e3          	bne	t2,t3,80004720 <fail>
    80003f24:	08800193          	li	gp,136
    80003f28:	09800313          	li	t1,152
    80003f2c:	ffffc3b7          	lui	t2,0xffffc
    80003f30:	8983839b          	addiw	t2,t2,-1896 # ffffffffffffb898 <freelist_head+0xffffffff7fff0890>
    80003f34:	006400a3          	sb	t1,1(s0)
    80003f38:	00141e03          	lh	t3,1(s0)
    80003f3c:	7fc39263          	bne	t2,t3,80004720 <fail>
    80003f40:	08900193          	li	gp,137
    80003f44:	09900313          	li	t1,153
    80003f48:	0000a3b7          	lui	t2,0xa
    80003f4c:	9983839b          	addiw	t2,t2,-1640 # 9998 <_start-0x7fff6668>
    80003f50:	00640123          	sb	t1,2(s0)
    80003f54:	00145e03          	lhu	t3,1(s0)
    80003f58:	7dc39463          	bne	t2,t3,80004720 <fail>
    80003f5c:	08a00193          	li	gp,138
    80003f60:	0000a337          	lui	t1,0xa
    80003f64:	b9a3031b          	addiw	t1,t1,-1126 # 9b9a <_start-0x7fff6466>
    80003f68:	c8c0a3b7          	lui	t2,0xc8c0a
    80003f6c:	b9a3839b          	addiw	t2,t2,-1126 # ffffffffc8c09b9a <freelist_head+0xffffffff48bfeb92>
    80003f70:	006410a3          	sh	t1,1(s0)
    80003f74:	00142e03          	lw	t3,1(s0)
    80003f78:	7bc39463          	bne	t2,t3,80004720 <fail>
    80003f7c:	08b00193          	li	gp,139
    80003f80:	0000a337          	lui	t1,0xa
    80003f84:	d9c3031b          	addiw	t1,t1,-612 # 9d9c <_start-0x7fff6264>
    80003f88:	d09da3b7          	lui	t2,0xd09da
    80003f8c:	c9b3839b          	addiw	t2,t2,-869 # ffffffffd09d9c9b <freelist_head+0xffffffff509cec93>
    80003f90:	006411a3          	sh	t1,3(s0)
    80003f94:	00242e03          	lw	t3,2(s0)
    80003f98:	79c39463          	bne	t2,t3,80004720 <fail>
    80003f9c:	08c00193          	li	gp,140
    80003fa0:	0000a337          	lui	t1,0xa
    80003fa4:	f9e3031b          	addiw	t1,t1,-98 # 9f9e <_start-0x7fff6062>
    80003fa8:	9f9ea3b7          	lui	t2,0x9f9ea
    80003fac:	d9c3839b          	addiw	t2,t2,-612 # ffffffff9f9e9d9c <freelist_head+0xffffffff1f9ded94>
    80003fb0:	006412a3          	sh	t1,5(s0)
    80003fb4:	00342e03          	lw	t3,3(s0)
    80003fb8:	77c39463          	bne	t2,t3,80004720 <fail>
    80003fbc:	08d00193          	li	gp,141
    80003fc0:	0a000313          	li	t1,160
    80003fc4:	0004f3b7          	lui	t2,0x4f
    80003fc8:	ce53839b          	addiw	t2,t2,-795 # 4ece5 <_start-0x7ffb131b>
    80003fcc:	00d39393          	slli	t2,t2,0xd
    80003fd0:	09a38393          	addi	t2,t2,154
    80003fd4:	00640123          	sb	t1,2(s0)
    80003fd8:	00146e03          	lwu	t3,1(s0)
    80003fdc:	75c39263          	bne	t2,t3,80004720 <fail>
    80003fe0:	08e00193          	li	gp,142
    80003fe4:	0000a337          	lui	t1,0xa
    80003fe8:	2a13031b          	addiw	t1,t1,673 # a2a1 <_start-0x7fff5d5f>
    80003fec:	0004f3b7          	lui	t2,0x4f
    80003ff0:	5153839b          	addiw	t2,t2,1301 # 4f515 <_start-0x7ffb0aeb>
    80003ff4:	00d39393          	slli	t2,t2,0xd
    80003ff8:	1a038393          	addi	t2,t2,416
    80003ffc:	006411a3          	sh	t1,3(s0)
    80004000:	00246e03          	lwu	t3,2(s0)
    80004004:	71c39e63          	bne	t2,t3,80004720 <fail>
    80004008:	08f00193          	li	gp,143
    8000400c:	0000a337          	lui	t1,0xa
    80004010:	4a33031b          	addiw	t1,t1,1187 # a4a3 <_start-0x7fff5b5d>
    80004014:	000523b7          	lui	t2,0x52
    80004018:	51d3839b          	addiw	t2,t2,1309 # 5251d <_start-0x7ffadae3>
    8000401c:	00d39393          	slli	t2,t2,0xd
    80004020:	2a138393          	addi	t2,t2,673
    80004024:	006412a3          	sh	t1,5(s0)
    80004028:	00346e03          	lwu	t3,3(s0)
    8000402c:	6fc39a63          	bne	t2,t3,80004720 <fail>
    80004030:	09000193          	li	gp,144
    80004034:	0a500313          	li	t1,165
    80004038:	ff0f03b7          	lui	t2,0xff0f0
    8000403c:	5253839b          	addiw	t2,t2,1317 # ffffffffff0f0525 <freelist_head+0xffffffff7f0e551d>
    80004040:	00c39393          	slli	t2,t2,0xc
    80004044:	1d138393          	addi	t2,t2,465
    80004048:	00c39393          	slli	t2,t2,0xc
    8000404c:	50d38393          	addi	t2,t2,1293
    80004050:	00d39393          	slli	t2,t2,0xd
    80004054:	59a38393          	addi	t2,t2,1434
    80004058:	00640123          	sb	t1,2(s0)
    8000405c:	00143e03          	ld	t3,1(s0)
    80004060:	6dc39063          	bne	t2,t3,80004720 <fail>
    80004064:	09100193          	li	gp,145
    80004068:	0000a337          	lui	t1,0xa
    8000406c:	7a63031b          	addiw	t1,t1,1958 # a7a6 <_start-0x7fff585a>
    80004070:	ff8aa3b7          	lui	t2,0xff8aa
    80004074:	e9b3839b          	addiw	t2,t2,-357 # ffffffffff8a9e9b <freelist_head+0xffffffff7f89ee93>
    80004078:	00c39393          	slli	t2,t2,0xc
    8000407c:	92938393          	addi	t2,t2,-1751
    80004080:	00d39393          	slli	t2,t2,0xd
    80004084:	d1538393          	addi	t2,t2,-747
    80004088:	00d39393          	slli	t2,t2,0xd
    8000408c:	1a538393          	addi	t2,t2,421
    80004090:	006413a3          	sh	t1,7(s0)
    80004094:	00243e03          	ld	t3,2(s0)
    80004098:	69c39463          	bne	t2,t3,80004720 <fail>
    8000409c:	09200193          	li	gp,146
    800040a0:	0000b337          	lui	t1,0xb
    800040a4:	9a83031b          	addiw	t1,t1,-1624 # a9a8 <_start-0x7fff5658>
    800040a8:	fea6a3b7          	lui	t2,0xfea6a
    800040ac:	29f3839b          	addiw	t2,t2,671 # fffffffffea6a29f <freelist_head+0xffffffff7ea5f297>
    800040b0:	00c39393          	slli	t2,t2,0xc
    800040b4:	9a938393          	addi	t2,t2,-1623
    800040b8:	00d39393          	slli	t2,t2,0xd
    800040bc:	51d38393          	addi	t2,t2,1309
    800040c0:	00d39393          	slli	t2,t2,0xd
    800040c4:	2a138393          	addi	t2,t2,673
    800040c8:	006414a3          	sh	t1,9(s0)
    800040cc:	00343e03          	ld	t3,3(s0)
    800040d0:	65c39863          	bne	t2,t3,80004720 <fail>
    800040d4:	09300193          	li	gp,147
    800040d8:	000ae337          	lui	t1,0xae
    800040dc:	acb3031b          	addiw	t1,t1,-1333 # adacb <_start-0x7ff52535>
    800040e0:	00c31313          	slli	t1,t1,0xc
    800040e4:	baa30313          	addi	t1,t1,-1110
    800040e8:	fe4aa3b7          	lui	t2,0xfe4aa
    800040ec:	a8b3839b          	addiw	t2,t2,-1397 # fffffffffe4a9a8b <freelist_head+0xffffffff7e49ea83>
    800040f0:	00c39393          	slli	t2,t2,0xc
    800040f4:	dad38393          	addi	t2,t2,-595
    800040f8:	00c39393          	slli	t2,t2,0xc
    800040fc:	abb38393          	addi	t2,t2,-1349
    80004100:	00c39393          	slli	t2,t2,0xc
    80004104:	aa238393          	addi	t2,t2,-1374
    80004108:	006422a3          	sw	t1,5(s0)
    8000410c:	00443e03          	ld	t3,4(s0)
    80004110:	61c39863          	bne	t2,t3,80004720 <fail>
    80004114:	09400193          	li	gp,148
    80004118:	000b2337          	lui	t1,0xb2
    8000411c:	b0b3031b          	addiw	t1,t1,-1269 # b1b0b <_start-0x7ff4e4f5>
    80004120:	00c31313          	slli	t1,t1,0xc
    80004124:	fae30313          	addi	t1,t1,-82
    80004128:	fff2f3b7          	lui	t2,0xfff2f
    8000412c:	2593839b          	addiw	t2,t2,601 # fffffffffff2f259 <freelist_head+0xffffffff7ff24251>
    80004130:	00d39393          	slli	t2,t2,0xd
    80004134:	b0b38393          	addi	t2,t2,-1269
    80004138:	01039393          	slli	t2,t2,0x10
    8000413c:	aeb38393          	addi	t2,t2,-1301
    80004140:	00c39393          	slli	t2,t2,0xc
    80004144:	baa38393          	addi	t2,t2,-1110
    80004148:	006423a3          	sw	t1,7(s0)
    8000414c:	00543e03          	ld	t3,5(s0)
    80004150:	5dc39863          	bne	t2,t3,80004720 <fail>
    80004154:	09500193          	li	gp,149
    80004158:	000b6337          	lui	t1,0xb6
    8000415c:	b4b3031b          	addiw	t1,t1,-1205 # b5b4b <_start-0x7ff4a4b5>
    80004160:	00c31313          	slli	t1,t1,0xc
    80004164:	3b230313          	addi	t1,t1,946
    80004168:	fe6b63b7          	lui	t2,0xfe6b6
    8000416c:	b4b3839b          	addiw	t2,t2,-1205 # fffffffffe6b5b4b <freelist_head+0xffffffff7e6aab43>
    80004170:	00c39393          	slli	t2,t2,0xc
    80004174:	3b338393          	addi	t2,t2,947
    80004178:	00c39393          	slli	t2,t2,0xc
    8000417c:	afb38393          	addi	t2,t2,-1285
    80004180:	00c39393          	slli	t2,t2,0xc
    80004184:	eab38393          	addi	t2,t2,-341
    80004188:	006424a3          	sw	t1,9(s0)
    8000418c:	00643e03          	ld	t3,6(s0)
    80004190:	59c39863          	bne	t2,t3,80004720 <fail>
    80004194:	09600193          	li	gp,150
    80004198:	000ba337          	lui	t1,0xba
    8000419c:	b8b3031b          	addiw	t1,t1,-1141 # b9b8b <_start-0x7ff46475>
    800041a0:	00c31313          	slli	t1,t1,0xc
    800041a4:	7b630313          	addi	t1,t1,1974
    800041a8:	fee6e3b7          	lui	t2,0xfee6e
    800041ac:	2df3839b          	addiw	t2,t2,735 # fffffffffee6e2df <freelist_head+0xffffffff7ee632d7>
    800041b0:	00c39393          	slli	t2,t2,0xc
    800041b4:	dad38393          	addi	t2,t2,-595
    800041b8:	00e39393          	slli	t2,t2,0xe
    800041bc:	b2b38393          	addi	t2,t2,-1237
    800041c0:	00c39393          	slli	t2,t2,0xc
    800041c4:	fae38393          	addi	t2,t2,-82
    800041c8:	006425a3          	sw	t1,11(s0)
    800041cc:	00743e03          	ld	t3,7(s0)
    800041d0:	55c39863          	bne	t2,t3,80004720 <fail>
    800041d4:	09700193          	li	gp,151
    800041d8:	0ba00313          	li	t1,186
    800041dc:	000033b7          	lui	t2,0x3
    800041e0:	1ba3839b          	addiw	t2,t2,442 # 31ba <_start-0x7fffce46>
    800041e4:	00640fa3          	sb	t1,31(s0)
    800041e8:	01f41e03          	lh	t3,31(s0)
    800041ec:	53c39a63          	bne	t2,t3,80004720 <fail>
    800041f0:	09800193          	li	gp,152
    800041f4:	0bb00313          	li	t1,187
    800041f8:	0000c3b7          	lui	t2,0xc
    800041fc:	bba3839b          	addiw	t2,t2,-1094 # bbba <_start-0x7fff4446>
    80004200:	02640023          	sb	t1,32(s0)
    80004204:	01f45e03          	lhu	t3,31(s0)
    80004208:	51c39c63          	bne	t2,t3,80004720 <fail>
    8000420c:	09900193          	li	gp,153
    80004210:	0000c337          	lui	t1,0xc
    80004214:	dbc3031b          	addiw	t1,t1,-580 # bdbc <_start-0x7fff4244>
    80004218:	32bbc3b7          	lui	t2,0x32bbc
    8000421c:	dbc3839b          	addiw	t2,t2,-580 # 32bbbdbc <_start-0x4d444244>
    80004220:	00641f23          	sh	t1,30(s0)
    80004224:	01e42e03          	lw	t3,30(s0)
    80004228:	4fc39c63          	bne	t2,t3,80004720 <fail>
    8000422c:	09a00193          	li	gp,154
    80004230:	0000c337          	lui	t1,0xc
    80004234:	fbe3031b          	addiw	t1,t1,-66 # bfbe <_start-0x7fff4042>
    80004238:	32bfc3b7          	lui	t2,0x32bfc
    8000423c:	ebc3839b          	addiw	t2,t2,-324 # 32bfbebc <_start-0x4d404144>
    80004240:	00641fa3          	sh	t1,31(s0)
    80004244:	01e42e03          	lw	t3,30(s0)
    80004248:	4dc39c63          	bne	t2,t3,80004720 <fail>
    8000424c:	09b00193          	li	gp,155
    80004250:	0000c337          	lui	t1,0xc
    80004254:	1c03031b          	addiw	t1,t1,448 # c1c0 <_start-0x7fff3e40>
    80004258:	c1c0c3b7          	lui	t2,0xc1c0c
    8000425c:	ebc3839b          	addiw	t2,t2,-324 # ffffffffc1c0bebc <freelist_head+0xffffffff41c00eb4>
    80004260:	02641023          	sh	t1,32(s0)
    80004264:	01e42e03          	lw	t3,30(s0)
    80004268:	4bc39c63          	bne	t2,t3,80004720 <fail>
    8000426c:	09c00193          	li	gp,156
    80004270:	0c200313          	li	t1,194
    80004274:	33c1c3b7          	lui	t2,0x33c1c
    80004278:	2be3839b          	addiw	t2,t2,702 # 33c1c2be <_start-0x4c3e3d42>
    8000427c:	02640023          	sb	t1,32(s0)
    80004280:	01f46e03          	lwu	t3,31(s0)
    80004284:	49c39e63          	bne	t2,t3,80004720 <fail>
    80004288:	09d00193          	li	gp,157
    8000428c:	0000c337          	lui	t1,0xc
    80004290:	4c33031b          	addiw	t1,t1,1219 # c4c3 <_start-0x7fff3b3d>
    80004294:	000313b7          	lui	t2,0x31
    80004298:	30f3839b          	addiw	t2,t2,783 # 3130f <_start-0x7ffcecf1>
    8000429c:	00e39393          	slli	t2,t2,0xe
    800042a0:	c2038393          	addi	t2,t2,-992
    800042a4:	00641fa3          	sh	t1,31(s0)
    800042a8:	01d46e03          	lwu	t3,29(s0)
    800042ac:	47c39a63          	bne	t2,t3,80004720 <fail>
    800042b0:	09e00193          	li	gp,158
    800042b4:	0000c337          	lui	t1,0xc
    800042b8:	6c53031b          	addiw	t1,t1,1733 # c6c5 <_start-0x7fff393b>
    800042bc:	000323b7          	lui	t2,0x32
    800042c0:	b173839b          	addiw	t2,t2,-1257 # 31b17 <_start-0x7ffce4e9>
    800042c4:	00e39393          	slli	t2,t2,0xe
    800042c8:	3bc38393          	addi	t2,t2,956
    800042cc:	02641023          	sh	t1,32(s0)
    800042d0:	01e46e03          	lwu	t3,30(s0)
    800042d4:	45c39663          	bne	t2,t3,80004720 <fail>
    800042d8:	09f00193          	li	gp,159
    800042dc:	0c700313          	li	t1,199
    800042e0:	fff1f3b7          	lui	t2,0xfff1f
    800042e4:	0ef3839b          	addiw	t2,t2,239 # fffffffffff1f0ef <freelist_head+0xffffffff7ff140e7>
    800042e8:	00f39393          	slli	t2,t2,0xf
    800042ec:	40338393          	addi	t2,t2,1027
    800042f0:	00f39393          	slli	t2,t2,0xf
    800042f4:	10138393          	addi	t2,t2,257
    800042f8:	00c39393          	slli	t2,t2,0xc
    800042fc:	80038393          	addi	t2,t2,-2048
    80004300:	02640023          	sb	t1,32(s0)
    80004304:	01943e03          	ld	t3,25(s0)
    80004308:	41c39c63          	bne	t2,t3,80004720 <fail>
    8000430c:	0a000193          	li	gp,160
    80004310:	0000d337          	lui	t1,0xd
    80004314:	9c83031b          	addiw	t1,t1,-1592 # c9c8 <_start-0x7fff3638>
    80004318:	fff8e3b7          	lui	t2,0xfff8e
    8000431c:	9393839b          	addiw	t2,t2,-1735 # fffffffffff8d939 <freelist_head+0xffffffff7ff82931>
    80004320:	00e39393          	slli	t2,t2,0xe
    80004324:	5e138393          	addi	t2,t2,1505
    80004328:	01139393          	slli	t2,t2,0x11
    8000432c:	18138393          	addi	t2,t2,385
    80004330:	00c39393          	slli	t2,t2,0xc
    80004334:	00838393          	addi	t2,t2,8
    80004338:	00641fa3          	sh	t1,31(s0)
    8000433c:	01a43e03          	ld	t3,26(s0)
    80004340:	3fc39063          	bne	t2,t3,80004720 <fail>
    80004344:	0a100193          	li	gp,161
    80004348:	0000d337          	lui	t1,0xd
    8000434c:	bca3031b          	addiw	t1,t1,-1078 # cbca <_start-0x7fff3436>
    80004350:	00cf23b7          	lui	t2,0xcf2
    80004354:	b2f3839b          	addiw	t2,t2,-1233 # cf1b2f <_start-0x7f30e4d1>
    80004358:	00c39393          	slli	t2,t2,0xc
    8000435c:	2af38393          	addi	t2,t2,687
    80004360:	00d39393          	slli	t2,t2,0xd
    80004364:	10138393          	addi	t2,t2,257
    80004368:	00d39393          	slli	t2,t2,0xd
    8000436c:	81038393          	addi	t2,t2,-2032
    80004370:	00641fa3          	sh	t1,31(s0)
    80004374:	01b43e03          	ld	t3,27(s0)
    80004378:	3bc39463          	bne	t2,t3,80004720 <fail>
    8000437c:	0a200193          	li	gp,162
    80004380:	000d0337          	lui	t1,0xd0
    80004384:	ced3031b          	addiw	t1,t1,-787 # cfced <_start-0x7ff30313>
    80004388:	00c31313          	slli	t1,t1,0xc
    8000438c:	dcc30313          	addi	t1,t1,-564
    80004390:	ff3f43b7          	lui	t2,0xff3f4
    80004394:	b373839b          	addiw	t2,t2,-1225 # ffffffffff3f3b37 <freelist_head+0xffffffff7f3e8b2f>
    80004398:	00d39393          	slli	t2,t2,0xd
    8000439c:	66538393          	addi	t2,t2,1637
    800043a0:	00c39393          	slli	t2,t2,0xc
    800043a4:	5e138393          	addi	t2,t2,1505
    800043a8:	00d39393          	slli	t2,t2,0xd
    800043ac:	01838393          	addi	t2,t2,24
    800043b0:	02642023          	sw	t1,32(s0)
    800043b4:	01c43e03          	ld	t3,28(s0)
    800043b8:	37c39463          	bne	t2,t3,80004720 <fail>
    800043bc:	0a300193          	li	gp,163
    800043c0:	000d4337          	lui	t1,0xd4
    800043c4:	d2d3031b          	addiw	t1,t1,-723 # d3d2d <_start-0x7ff2c2d3>
    800043c8:	00c31313          	slli	t1,t1,0xc
    800043cc:	1d030313          	addi	t1,t1,464
    800043d0:	000d73b7          	lui	t2,0xd7
    800043d4:	3f53839b          	addiw	t2,t2,1013 # d73f5 <_start-0x7ff28c0b>
    800043d8:	00e39393          	slli	t2,t2,0xe
    800043dc:	d2d38393          	addi	t2,t2,-723
    800043e0:	00e39393          	slli	t2,t2,0xe
    800043e4:	74338393          	addi	t2,t2,1859
    800043e8:	00e39393          	slli	t2,t2,0xe
    800043ec:	c2038393          	addi	t2,t2,-992
    800043f0:	00642fa3          	sw	t1,31(s0)
    800043f4:	01d43e03          	ld	t3,29(s0)
    800043f8:	33c39463          	bne	t2,t3,80004720 <fail>
    800043fc:	0a400193          	li	gp,164
    80004400:	000d8337          	lui	t1,0xd8
    80004404:	d6d3031b          	addiw	t1,t1,-659 # d7d6d <_start-0x7ff28293>
    80004408:	00c31313          	slli	t1,t1,0xc
    8000440c:	5d430313          	addi	t1,t1,1492
    80004410:	000363b7          	lui	t2,0x36
    80004414:	35d3839b          	addiw	t2,t2,861 # 3635d <_start-0x7ffc9ca3>
    80004418:	01139393          	slli	t2,t2,0x11
    8000441c:	a7b38393          	addi	t2,t2,-1413
    80004420:	00f39393          	slli	t2,t2,0xf
    80004424:	d6d38393          	addi	t2,t2,-659
    80004428:	00c39393          	slli	t2,t2,0xc
    8000442c:	5d438393          	addi	t2,t2,1492
    80004430:	00642f23          	sw	t1,30(s0)
    80004434:	01e43e03          	ld	t3,30(s0)
    80004438:	2fc39463          	bne	t2,t3,80004720 <fail>
    8000443c:	0a500193          	li	gp,165
    80004440:	0006e337          	lui	t1,0x6e
    80004444:	ed73031b          	addiw	t1,t1,-297 # 6ded7 <_start-0x7ff92129>
    80004448:	00d31313          	slli	t1,t1,0xd
    8000444c:	9d830313          	addi	t1,t1,-1576
    80004450:	00dce3b7          	lui	t2,0xdce
    80004454:	8d73839b          	addiw	t2,t2,-1833 # dcd8d7 <_start-0x7f232729>
    80004458:	00c39393          	slli	t2,t2,0xc
    8000445c:	3f538393          	addi	t2,t2,1013
    80004460:	00d39393          	slli	t2,t2,0xd
    80004464:	ebf38393          	addi	t2,t2,-321
    80004468:	00d39393          	slli	t2,t2,0xd
    8000446c:	bda38393          	addi	t2,t2,-1062
    80004470:	00642ea3          	sw	t1,29(s0)
    80004474:	01f43e03          	ld	t3,31(s0)
    80004478:	2bc39463          	bne	t2,t3,80004720 <fail>
    8000447c:	0a600193          	li	gp,166
    80004480:	0dc00313          	li	t1,220
    80004484:	ffff93b7          	lui	t2,0xffff9
    80004488:	1dc3839b          	addiw	t2,t2,476 # ffffffffffff91dc <freelist_head+0xffffffff7ffee1d4>
    8000448c:	02640fa3          	sb	t1,63(s0)
    80004490:	03f41e03          	lh	t3,63(s0)
    80004494:	29c39663          	bne	t2,t3,80004720 <fail>
    80004498:	0a700193          	li	gp,167
    8000449c:	0dd00313          	li	t1,221
    800044a0:	0000e3b7          	lui	t2,0xe
    800044a4:	ddc3839b          	addiw	t2,t2,-548 # dddc <_start-0x7fff2224>
    800044a8:	04640023          	sb	t1,64(s0)
    800044ac:	03f45e03          	lhu	t3,63(s0)
    800044b0:	27c39863          	bne	t2,t3,80004720 <fail>
    800044b4:	0a800193          	li	gp,168
    800044b8:	0000e337          	lui	t1,0xe
    800044bc:	fde3031b          	addiw	t1,t1,-34 # dfde <_start-0x7fff2022>
    800044c0:	92dde3b7          	lui	t2,0x92dde
    800044c4:	fde3839b          	addiw	t2,t2,-34 # ffffffff92dddfde <freelist_head+0xffffffff12dd2fd6>
    800044c8:	02641f23          	sh	t1,62(s0)
    800044cc:	03e42e03          	lw	t3,62(s0)
    800044d0:	25c39863          	bne	t2,t3,80004720 <fail>
    800044d4:	0a900193          	li	gp,169
    800044d8:	0000e337          	lui	t1,0xe
    800044dc:	1e03031b          	addiw	t1,t1,480 # e1e0 <_start-0x7fff1e20>
    800044e0:	92e1e3b7          	lui	t2,0x92e1e
    800044e4:	0de3839b          	addiw	t2,t2,222 # ffffffff92e1e0de <freelist_head+0xffffffff12e130d6>
    800044e8:	02641fa3          	sh	t1,63(s0)
    800044ec:	03e42e03          	lw	t3,62(s0)
    800044f0:	23c39863          	bne	t2,t3,80004720 <fail>
    800044f4:	0aa00193          	li	gp,170
    800044f8:	0000e337          	lui	t1,0xe
    800044fc:	3e23031b          	addiw	t1,t1,994 # e3e2 <_start-0x7fff1c1e>
    80004500:	e3e2e3b7          	lui	t2,0xe3e2e
    80004504:	0de3839b          	addiw	t2,t2,222 # ffffffffe3e2e0de <freelist_head+0xffffffff63e230d6>
    80004508:	04641023          	sh	t1,64(s0)
    8000450c:	03e42e03          	lw	t3,62(s0)
    80004510:	21c39863          	bne	t2,t3,80004720 <fail>
    80004514:	0ab00193          	li	gp,171
    80004518:	0e400313          	li	t1,228
    8000451c:	0004a3b7          	lui	t2,0x4a
    80004520:	f1f3839b          	addiw	t2,t2,-225 # 49f1f <_start-0x7ffb60e1>
    80004524:	00d39393          	slli	t2,t2,0xd
    80004528:	4e038393          	addi	t2,t2,1248
    8000452c:	04640023          	sb	t1,64(s0)
    80004530:	03f46e03          	lwu	t3,63(s0)
    80004534:	1fc39663          	bne	t2,t3,80004720 <fail>
    80004538:	0ac00193          	li	gp,172
    8000453c:	0000e337          	lui	t1,0xe
    80004540:	6e53031b          	addiw	t1,t1,1765 # e6e5 <_start-0x7fff191b>
    80004544:	000733b7          	lui	t2,0x73
    80004548:	72f3839b          	addiw	t2,t2,1839 # 7372f <_start-0x7ff8c8d1>
    8000454c:	00d39393          	slli	t2,t2,0xd
    80004550:	e8038393          	addi	t2,t2,-384
    80004554:	02641fa3          	sh	t1,63(s0)
    80004558:	03d46e03          	lwu	t3,61(s0)
    8000455c:	1dc39263          	bne	t2,t3,80004720 <fail>
    80004560:	0ad00193          	li	gp,173
    80004564:	0000f337          	lui	t1,0xf
    80004568:	8e73031b          	addiw	t1,t1,-1817 # e8e7 <_start-0x7fff1719>
    8000456c:	000743b7          	lui	t2,0x74
    80004570:	73f3839b          	addiw	t2,t2,1855 # 7473f <_start-0x7ff8b8c1>
    80004574:	00d39393          	slli	t2,t2,0xd
    80004578:	5de38393          	addi	t2,t2,1502
    8000457c:	04641023          	sh	t1,64(s0)
    80004580:	03e46e03          	lwu	t3,62(s0)
    80004584:	19c39e63          	bne	t2,t3,80004720 <fail>
    80004588:	0ae00193          	li	gp,174
    8000458c:	0e900313          	li	t1,233
    80004590:	ffd3d3b7          	lui	t2,0xffd3d
    80004594:	bbd3839b          	addiw	t2,t2,-1091 # ffffffffffd3cbbd <freelist_head+0xffffffff7fd31bb5>
    80004598:	00c39393          	slli	t2,t2,0xc
    8000459c:	00f38393          	addi	t2,t2,15
    800045a0:	00f39393          	slli	t2,t2,0xf
    800045a4:	70738393          	addi	t2,t2,1799
    800045a8:	00c39393          	slli	t2,t2,0xc
    800045ac:	86038393          	addi	t2,t2,-1952
    800045b0:	04640023          	sb	t1,64(s0)
    800045b4:	03943e03          	ld	t3,57(s0)
    800045b8:	17c39463          	bne	t2,t3,80004720 <fail>
    800045bc:	0af00193          	li	gp,175
    800045c0:	0000f337          	lui	t1,0xf
    800045c4:	bea3031b          	addiw	t1,t1,-1046 # ebea <_start-0x7fff1416>
    800045c8:	d1d7d3b7          	lui	t2,0xd1d7d
    800045cc:	5bd3839b          	addiw	t2,t2,1469 # ffffffffd1d7d5bd <freelist_head+0xffffffff51d725b5>
    800045d0:	01339393          	slli	t2,t2,0x13
    800045d4:	78738393          	addi	t2,t2,1927
    800045d8:	00c39393          	slli	t2,t2,0xc
    800045dc:	06838393          	addi	t2,t2,104
    800045e0:	02641fa3          	sh	t1,63(s0)
    800045e4:	03a43e03          	ld	t3,58(s0)
    800045e8:	13c39c63          	bne	t2,t3,80004720 <fail>
    800045ec:	0b000193          	li	gp,176
    800045f0:	0000f337          	lui	t1,0xf
    800045f4:	dec3031b          	addiw	t1,t1,-532 # edec <_start-0x7fff1214>
    800045f8:	ffc9f3b7          	lui	t2,0xffc9f
    800045fc:	4773839b          	addiw	t2,t2,1143 # ffffffffffc9f477 <freelist_head+0xffffffff7fc9446f>
    80004600:	00c39393          	slli	t2,t2,0xc
    80004604:	f6738393          	addi	t2,t2,-153
    80004608:	00e39393          	slli	t2,t2,0xe
    8000460c:	d0138393          	addi	t2,t2,-767
    80004610:	00f39393          	slli	t2,t2,0xf
    80004614:	87038393          	addi	t2,t2,-1936
    80004618:	02641fa3          	sh	t1,63(s0)
    8000461c:	03b43e03          	ld	t3,59(s0)
    80004620:	11c39063          	bne	t2,t3,80004720 <fail>
    80004624:	0b100193          	li	gp,177
    80004628:	000f2337          	lui	t1,0xf2
    8000462c:	f0f3031b          	addiw	t1,t1,-241 # f1f0f <_start-0x7ff0e0f1>
    80004630:	00c31313          	slli	t1,t1,0xc
    80004634:	fee30313          	addi	t1,t1,-18
    80004638:	ffff23b7          	lui	t2,0xffff2
    8000463c:	f0f3839b          	addiw	t2,t2,-241 # ffffffffffff1f0f <freelist_head+0xffffffff7ffe6f07>
    80004640:	01039393          	slli	t2,t2,0x10
    80004644:	eef38393          	addi	t2,t2,-273
    80004648:	00d39393          	slli	t2,t2,0xd
    8000464c:	9bd38393          	addi	t2,t2,-1603
    80004650:	00f39393          	slli	t2,t2,0xf
    80004654:	07838393          	addi	t2,t2,120
    80004658:	04642023          	sw	t1,64(s0)
    8000465c:	03c43e03          	ld	t3,60(s0)
    80004660:	0dc39063          	bne	t2,t3,80004720 <fail>
    80004664:	0b200193          	li	gp,178
    80004668:	000f6337          	lui	t1,0xf6
    8000466c:	f4f3031b          	addiw	t1,t1,-177 # f5f4f <_start-0x7ff0a0b1>
    80004670:	00c31313          	slli	t1,t1,0xc
    80004674:	3f230313          	addi	t1,t1,1010
    80004678:	ffcb03b7          	lui	t2,0xffcb0
    8000467c:	8fb3839b          	addiw	t2,t2,-1797 # ffffffffffcaf8fb <freelist_head+0xffffffff7fca48f3>
    80004680:	00f39393          	slli	t2,t2,0xf
    80004684:	d3d38393          	addi	t2,t2,-707
    80004688:	00d39393          	slli	t2,t2,0xd
    8000468c:	f9738393          	addi	t2,t2,-105
    80004690:	00d39393          	slli	t2,t2,0xd
    80004694:	e8038393          	addi	t2,t2,-384
    80004698:	02642fa3          	sw	t1,63(s0)
    8000469c:	03d43e03          	ld	t3,61(s0)
    800046a0:	09c39063          	bne	t2,t3,80004720 <fail>
    800046a4:	0b300193          	li	gp,179
    800046a8:	000fa337          	lui	t1,0xfa
    800046ac:	f8f3031b          	addiw	t1,t1,-113 # f9f8f <_start-0x7ff06071>
    800046b0:	00c31313          	slli	t1,t1,0xc
    800046b4:	7f630313          	addi	t1,t1,2038
    800046b8:	ffcb53b7          	lui	t2,0xffcb5
    800046bc:	af93839b          	addiw	t2,t2,-1287 # ffffffffffcb4af9 <freelist_head+0xffffffff7fca9af1>
    800046c0:	01039393          	slli	t2,t2,0x10
    800046c4:	afd38393          	addi	t2,t2,-1283
    800046c8:	00d39393          	slli	t2,t2,0xd
    800046cc:	f8f38393          	addi	t2,t2,-113
    800046d0:	00c39393          	slli	t2,t2,0xc
    800046d4:	7f638393          	addi	t2,t2,2038
    800046d8:	02642f23          	sw	t1,62(s0)
    800046dc:	03e43e03          	ld	t3,62(s0)
    800046e0:	05c39063          	bne	t2,t3,80004720 <fail>
    800046e4:	0b400193          	li	gp,180
    800046e8:	00010337          	lui	t1,0x10
    800046ec:	dfd3031b          	addiw	t1,t1,-515 # fdfd <_start-0x7fff0203>
    800046f0:	01031313          	slli	t1,t1,0x10
    800046f4:	bfa30313          	addi	t1,t1,-1030
    800046f8:	cbcb53b7          	lui	t2,0xcbcb5
    800046fc:	af93839b          	addiw	t2,t2,-1287 # ffffffffcbcb4af9 <freelist_head+0xffffffff4bca9af1>
    80004700:	01039393          	slli	t2,t2,0x10
    80004704:	afd38393          	addi	t2,t2,-1283
    80004708:	01139393          	slli	t2,t2,0x11
    8000470c:	dfc38393          	addi	t2,t2,-516
    80004710:	02642ea3          	sw	t1,61(s0)
    80004714:	03f43e03          	ld	t3,63(s0)
    80004718:	01c39463          	bne	t2,t3,80004720 <fail>
    8000471c:	00301a63          	bne	zero,gp,80004730 <pass>

0000000080004720 <fail>:
    80004720:	00119513          	slli	a0,gp,0x1
    80004724:	00050063          	beqz	a0,80004724 <fail+0x4>
    80004728:	00156513          	ori	a0,a0,1
    8000472c:	00000073          	ecall

0000000080004730 <pass>:
    80004730:	00100513          	li	a0,1
    80004734:	00000073          	ecall
    80004738:	c0001073          	unimp
