
rv64ui-v-lh:     file format elf64-littleriscv


Disassembly of section .text.init:

0000000080000000 <_start>:
    80000000:	00c0006f          	j	8000000c <handle_reset>

0000000080000004 <nmi_vector>:
    80000004:	2c40206f          	j	800022c8 <wtf>

0000000080000008 <trap_vector>:
    80000008:	2c00206f          	j	800022c8 <wtf>

000000008000000c <handle_reset>:
    8000000c:	00000093          	li	ra,0
    80000010:	00000113          	li	sp,0
    80000014:	00000193          	li	gp,0
    80000018:	00000213          	li	tp,0
    8000001c:	00000293          	li	t0,0
    80000020:	00000313          	li	t1,0
    80000024:	00000393          	li	t2,0
    80000028:	00000413          	li	s0,0
    8000002c:	00000493          	li	s1,0
    80000030:	00000513          	li	a0,0
    80000034:	00000593          	li	a1,0
    80000038:	00000613          	li	a2,0
    8000003c:	00000693          	li	a3,0
    80000040:	00000713          	li	a4,0
    80000044:	00000793          	li	a5,0
    80000048:	00000813          	li	a6,0
    8000004c:	00000893          	li	a7,0
    80000050:	00000913          	li	s2,0
    80000054:	00000993          	li	s3,0
    80000058:	00000a13          	li	s4,0
    8000005c:	00000a93          	li	s5,0
    80000060:	00000b13          	li	s6,0
    80000064:	00000b93          	li	s7,0
    80000068:	00000c13          	li	s8,0
    8000006c:	00000c93          	li	s9,0
    80000070:	00000d13          	li	s10,0
    80000074:	00000d93          	li	s11,0
    80000078:	00000e13          	li	t3,0
    8000007c:	00000e93          	li	t4,0
    80000080:	00000f13          	li	t5,0
    80000084:	00000f93          	li	t6,0
    80000088:	00000297          	auipc	t0,0x0
    8000008c:	01028293          	addi	t0,t0,16 # 80000098 <handle_reset+0x8c>
    80000090:	30529073          	csrw	mtvec,t0
    80000094:	74445073          	csrwi	0x744,8
    80000098:	00000297          	auipc	t0,0x0
    8000009c:	f7028293          	addi	t0,t0,-144 # 80000008 <trap_vector>
    800000a0:	30529073          	csrw	mtvec,t0
    800000a4:	0000d117          	auipc	sp,0xd
    800000a8:	e3c10113          	addi	sp,sp,-452 # 8000cee0 <freelist_head+0x3ed8>
    800000ac:	f14022f3          	csrr	t0,mhartid
    800000b0:	00c29293          	slli	t0,t0,0xc
    800000b4:	00510133          	add	sp,sp,t0
    800000b8:	34011073          	csrw	mscratch,sp
    800000bc:	1d9020ef          	jal	80002a94 <extra_boot>
    800000c0:	00003517          	auipc	a0,0x3
    800000c4:	9e850513          	addi	a0,a0,-1560 # 80002aa8 <userstart>
    800000c8:	7c40206f          	j	8000288c <vm_boot>

00000000800000cc <pop_tf>:
    800000cc:	10853283          	ld	t0,264(a0)
    800000d0:	14129073          	csrw	sepc,t0
    800000d4:	00853083          	ld	ra,8(a0)
    800000d8:	01053103          	ld	sp,16(a0)
    800000dc:	01853183          	ld	gp,24(a0)
    800000e0:	02053203          	ld	tp,32(a0)
    800000e4:	02853283          	ld	t0,40(a0)
    800000e8:	03053303          	ld	t1,48(a0)
    800000ec:	03853383          	ld	t2,56(a0)
    800000f0:	04053403          	ld	s0,64(a0)
    800000f4:	04853483          	ld	s1,72(a0)
    800000f8:	05853583          	ld	a1,88(a0)
    800000fc:	06053603          	ld	a2,96(a0)
    80000100:	06853683          	ld	a3,104(a0)
    80000104:	07053703          	ld	a4,112(a0)
    80000108:	07853783          	ld	a5,120(a0)
    8000010c:	08053803          	ld	a6,128(a0)
    80000110:	08853883          	ld	a7,136(a0)
    80000114:	09053903          	ld	s2,144(a0)
    80000118:	09853983          	ld	s3,152(a0)
    8000011c:	0a053a03          	ld	s4,160(a0)
    80000120:	0a853a83          	ld	s5,168(a0)
    80000124:	0b053b03          	ld	s6,176(a0)
    80000128:	0b853b83          	ld	s7,184(a0)
    8000012c:	0c053c03          	ld	s8,192(a0)
    80000130:	0c853c83          	ld	s9,200(a0)
    80000134:	0d053d03          	ld	s10,208(a0)
    80000138:	0d853d83          	ld	s11,216(a0)
    8000013c:	0e053e03          	ld	t3,224(a0)
    80000140:	0e853e83          	ld	t4,232(a0)
    80000144:	0f053f03          	ld	t5,240(a0)
    80000148:	0f853f83          	ld	t6,248(a0)
    8000014c:	05053503          	ld	a0,80(a0)
    80000150:	10200073          	sret

0000000080000154 <trap_entry>:
    80000154:	14011173          	csrrw	sp,sscratch,sp
    80000158:	00113423          	sd	ra,8(sp)
    8000015c:	00313c23          	sd	gp,24(sp)
    80000160:	02413023          	sd	tp,32(sp)
    80000164:	02513423          	sd	t0,40(sp)
    80000168:	02613823          	sd	t1,48(sp)
    8000016c:	02713c23          	sd	t2,56(sp)
    80000170:	04813023          	sd	s0,64(sp)
    80000174:	04913423          	sd	s1,72(sp)
    80000178:	04a13823          	sd	a0,80(sp)
    8000017c:	04b13c23          	sd	a1,88(sp)
    80000180:	06c13023          	sd	a2,96(sp)
    80000184:	06d13423          	sd	a3,104(sp)
    80000188:	06e13823          	sd	a4,112(sp)
    8000018c:	06f13c23          	sd	a5,120(sp)
    80000190:	09013023          	sd	a6,128(sp)
    80000194:	09113423          	sd	a7,136(sp)
    80000198:	09213823          	sd	s2,144(sp)
    8000019c:	09313c23          	sd	s3,152(sp)
    800001a0:	0b413023          	sd	s4,160(sp)
    800001a4:	0b513423          	sd	s5,168(sp)
    800001a8:	0b613823          	sd	s6,176(sp)
    800001ac:	0b713c23          	sd	s7,184(sp)
    800001b0:	0d813023          	sd	s8,192(sp)
    800001b4:	0d913423          	sd	s9,200(sp)
    800001b8:	0da13823          	sd	s10,208(sp)
    800001bc:	0db13c23          	sd	s11,216(sp)
    800001c0:	0fc13023          	sd	t3,224(sp)
    800001c4:	0fd13423          	sd	t4,232(sp)
    800001c8:	0fe13823          	sd	t5,240(sp)
    800001cc:	0ff13c23          	sd	t6,248(sp)
    800001d0:	140112f3          	csrrw	t0,sscratch,sp
    800001d4:	00513823          	sd	t0,16(sp)
    800001d8:	100022f3          	csrr	t0,sstatus
    800001dc:	10513023          	sd	t0,256(sp)
    800001e0:	141022f3          	csrr	t0,sepc
    800001e4:	10513423          	sd	t0,264(sp)
    800001e8:	143022f3          	csrr	t0,stval
    800001ec:	10513823          	sd	t0,272(sp)
    800001f0:	142022f3          	csrr	t0,scause
    800001f4:	10513c23          	sd	t0,280(sp)
    800001f8:	00010513          	mv	a0,sp
    800001fc:	3b40206f          	j	800025b0 <handle_trap>

Disassembly of section .text:

0000000080002000 <memcpy>:
    80002000:	00c5e7b3          	or	a5,a1,a2
    80002004:	00f567b3          	or	a5,a0,a5
    80002008:	0077f793          	andi	a5,a5,7
    8000200c:	00c506b3          	add	a3,a0,a2
    80002010:	02078463          	beqz	a5,80002038 <memcpy+0x38>
    80002014:	00c58633          	add	a2,a1,a2
    80002018:	00050793          	mv	a5,a0
    8000201c:	02d57e63          	bgeu	a0,a3,80002058 <memcpy+0x58>
    80002020:	0005c703          	lbu	a4,0(a1)
    80002024:	00158593          	addi	a1,a1,1
    80002028:	00178793          	addi	a5,a5,1
    8000202c:	fee78fa3          	sb	a4,-1(a5)
    80002030:	feb618e3          	bne	a2,a1,80002020 <memcpy+0x20>
    80002034:	00008067          	ret
    80002038:	fed57ee3          	bgeu	a0,a3,80002034 <memcpy+0x34>
    8000203c:	00050793          	mv	a5,a0
    80002040:	0005b703          	ld	a4,0(a1)
    80002044:	00878793          	addi	a5,a5,8
    80002048:	00858593          	addi	a1,a1,8
    8000204c:	fee7bc23          	sd	a4,-8(a5)
    80002050:	fed7e8e3          	bltu	a5,a3,80002040 <memcpy+0x40>
    80002054:	00008067          	ret
    80002058:	00008067          	ret

000000008000205c <memset>:
    8000205c:	ff010113          	addi	sp,sp,-16
    80002060:	00c567b3          	or	a5,a0,a2
    80002064:	00813023          	sd	s0,0(sp)
    80002068:	00113423          	sd	ra,8(sp)
    8000206c:	0077f793          	andi	a5,a5,7
    80002070:	00050413          	mv	s0,a0
    80002074:	00c50733          	add	a4,a0,a2
    80002078:	02078263          	beqz	a5,8000209c <memset+0x40>
    8000207c:	00e57663          	bgeu	a0,a4,80002088 <memset+0x2c>
    80002080:	0ff5f593          	zext.b	a1,a1
    80002084:	fd9ff0ef          	jal	8000205c <memset>
    80002088:	00813083          	ld	ra,8(sp)
    8000208c:	00040513          	mv	a0,s0
    80002090:	00013403          	ld	s0,0(sp)
    80002094:	01010113          	addi	sp,sp,16
    80002098:	00008067          	ret
    8000209c:	010107b7          	lui	a5,0x1010
    800020a0:	10178793          	addi	a5,a5,257 # 1010101 <_start-0x7efefeff>
    800020a4:	02079693          	slli	a3,a5,0x20
    800020a8:	0ff5f593          	zext.b	a1,a1
    800020ac:	00f686b3          	add	a3,a3,a5
    800020b0:	02d585b3          	mul	a1,a1,a3
    800020b4:	fce57ae3          	bgeu	a0,a4,80002088 <memset+0x2c>
    800020b8:	00050793          	mv	a5,a0
    800020bc:	00878793          	addi	a5,a5,8
    800020c0:	feb7bc23          	sd	a1,-8(a5)
    800020c4:	fee7ece3          	bltu	a5,a4,800020bc <memset+0x60>
    800020c8:	00813083          	ld	ra,8(sp)
    800020cc:	00040513          	mv	a0,s0
    800020d0:	00013403          	ld	s0,0(sp)
    800020d4:	01010113          	addi	sp,sp,16
    800020d8:	00008067          	ret

00000000800020dc <strlen>:
    800020dc:	00054783          	lbu	a5,0(a0)
    800020e0:	00078e63          	beqz	a5,800020fc <strlen+0x20>
    800020e4:	00050793          	mv	a5,a0
    800020e8:	0017c703          	lbu	a4,1(a5)
    800020ec:	00178793          	addi	a5,a5,1
    800020f0:	fe071ce3          	bnez	a4,800020e8 <strlen+0xc>
    800020f4:	40a78533          	sub	a0,a5,a0
    800020f8:	00008067          	ret
    800020fc:	00000513          	li	a0,0
    80002100:	00008067          	ret

0000000080002104 <strcmp>:
    80002104:	00054783          	lbu	a5,0(a0)
    80002108:	00150513          	addi	a0,a0,1
    8000210c:	00158593          	addi	a1,a1,1
    80002110:	fff5c703          	lbu	a4,-1(a1)
    80002114:	00078a63          	beqz	a5,80002128 <strcmp+0x24>
    80002118:	fee786e3          	beq	a5,a4,80002104 <strcmp>
    8000211c:	0007851b          	sext.w	a0,a5
    80002120:	40e5053b          	subw	a0,a0,a4
    80002124:	00008067          	ret
    80002128:	00000513          	li	a0,0
    8000212c:	ff5ff06f          	j	80002120 <strcmp+0x1c>

0000000080002130 <memcmp>:
    80002130:	00b567b3          	or	a5,a0,a1
    80002134:	0077f793          	andi	a5,a5,7
    80002138:	02079e63          	bnez	a5,80002174 <memcmp+0x44>
    8000213c:	ff867813          	andi	a6,a2,-8
    80002140:	01050833          	add	a6,a0,a6
    80002144:	03057863          	bgeu	a0,a6,80002174 <memcmp+0x44>
    80002148:	00050793          	mv	a5,a0
    8000214c:	0100006f          	j	8000215c <memcmp+0x2c>
    80002150:	00878793          	addi	a5,a5,8
    80002154:	00858593          	addi	a1,a1,8
    80002158:	0107f863          	bgeu	a5,a6,80002168 <memcmp+0x38>
    8000215c:	0007b683          	ld	a3,0(a5)
    80002160:	0005b703          	ld	a4,0(a1)
    80002164:	fee686e3          	beq	a3,a4,80002150 <memcmp+0x20>
    80002168:	40a78533          	sub	a0,a5,a0
    8000216c:	40a60633          	sub	a2,a2,a0
    80002170:	00078513          	mv	a0,a5
    80002174:	00c58633          	add	a2,a1,a2
    80002178:	0140006f          	j	8000218c <memcmp+0x5c>
    8000217c:	fff54783          	lbu	a5,-1(a0)
    80002180:	0005c703          	lbu	a4,0(a1)
    80002184:	00158593          	addi	a1,a1,1
    80002188:	00e79a63          	bne	a5,a4,8000219c <memcmp+0x6c>
    8000218c:	00150513          	addi	a0,a0,1
    80002190:	fec596e3          	bne	a1,a2,8000217c <memcmp+0x4c>
    80002194:	00000513          	li	a0,0
    80002198:	00008067          	ret
    8000219c:	40e7853b          	subw	a0,a5,a4
    800021a0:	00008067          	ret

00000000800021a4 <strcpy>:
    800021a4:	00050793          	mv	a5,a0
    800021a8:	0005c703          	lbu	a4,0(a1)
    800021ac:	00158593          	addi	a1,a1,1
    800021b0:	00178793          	addi	a5,a5,1
    800021b4:	fee78fa3          	sb	a4,-1(a5)
    800021b8:	fe0718e3          	bnez	a4,800021a8 <strcpy+0x4>
    800021bc:	00008067          	ret

00000000800021c0 <atol>:
    800021c0:	00054703          	lbu	a4,0(a0)
    800021c4:	02000693          	li	a3,32
    800021c8:	00050793          	mv	a5,a0
    800021cc:	00d71a63          	bne	a4,a3,800021e0 <atol+0x20>
    800021d0:	00070693          	mv	a3,a4
    800021d4:	0017c703          	lbu	a4,1(a5)
    800021d8:	00178793          	addi	a5,a5,1
    800021dc:	fed70ce3          	beq	a4,a3,800021d4 <atol+0x14>
    800021e0:	02d00693          	li	a3,45
    800021e4:	04d70e63          	beq	a4,a3,80002240 <atol+0x80>
    800021e8:	02b00693          	li	a3,43
    800021ec:	04d70063          	beq	a4,a3,8000222c <atol+0x6c>
    800021f0:	0007c683          	lbu	a3,0(a5)
    800021f4:	00000593          	li	a1,0
    800021f8:	04068c63          	beqz	a3,80002250 <atol+0x90>
    800021fc:	00000513          	li	a0,0
    80002200:	00178793          	addi	a5,a5,1
    80002204:	fd06861b          	addiw	a2,a3,-48
    80002208:	00251713          	slli	a4,a0,0x2
    8000220c:	0007c683          	lbu	a3,0(a5)
    80002210:	00a70733          	add	a4,a4,a0
    80002214:	00171713          	slli	a4,a4,0x1
    80002218:	00e60533          	add	a0,a2,a4
    8000221c:	fe0692e3          	bnez	a3,80002200 <atol+0x40>
    80002220:	02058a63          	beqz	a1,80002254 <atol+0x94>
    80002224:	40a00533          	neg	a0,a0
    80002228:	00008067          	ret
    8000222c:	0017c683          	lbu	a3,1(a5)
    80002230:	00178793          	addi	a5,a5,1
    80002234:	00068e63          	beqz	a3,80002250 <atol+0x90>
    80002238:	00000593          	li	a1,0
    8000223c:	fc1ff06f          	j	800021fc <atol+0x3c>
    80002240:	0017c683          	lbu	a3,1(a5)
    80002244:	00100593          	li	a1,1
    80002248:	00b787b3          	add	a5,a5,a1
    8000224c:	fa0698e3          	bnez	a3,800021fc <atol+0x3c>
    80002250:	00000513          	li	a0,0
    80002254:	00008067          	ret

0000000080002258 <cputstring>:
    80002258:	00054783          	lbu	a5,0(a0)
    8000225c:	04078063          	beqz	a5,8000229c <cputstring+0x44>
    80002260:	10100593          	li	a1,257
    80002264:	03059593          	slli	a1,a1,0x30
    80002268:	fffff717          	auipc	a4,0xfffff
    8000226c:	d9870713          	addi	a4,a4,-616 # 80001000 <tohost>
    80002270:	00073603          	ld	a2,0(a4)
    80002274:	00150513          	addi	a0,a0,1
    80002278:	00b7e6b3          	or	a3,a5,a1
    8000227c:	00060a63          	beqz	a2,80002290 <cputstring+0x38>
    80002280:	fffff797          	auipc	a5,0xfffff
    80002284:	dc07b023          	sd	zero,-576(a5) # 80001040 <fromhost>
    80002288:	00073783          	ld	a5,0(a4)
    8000228c:	fe079ae3          	bnez	a5,80002280 <cputstring+0x28>
    80002290:	00d73023          	sd	a3,0(a4)
    80002294:	00054783          	lbu	a5,0(a0)
    80002298:	fc079ce3          	bnez	a5,80002270 <cputstring+0x18>
    8000229c:	00008067          	ret

00000000800022a0 <terminate>:
    800022a0:	fffff717          	auipc	a4,0xfffff
    800022a4:	d6070713          	addi	a4,a4,-672 # 80001000 <tohost>
    800022a8:	00073783          	ld	a5,0(a4)
    800022ac:	00078a63          	beqz	a5,800022c0 <terminate+0x20>
    800022b0:	fffff797          	auipc	a5,0xfffff
    800022b4:	d807b823          	sd	zero,-624(a5) # 80001040 <fromhost>
    800022b8:	00073783          	ld	a5,0(a4)
    800022bc:	fe079ae3          	bnez	a5,800022b0 <terminate+0x10>
    800022c0:	00a73023          	sd	a0,0(a4)
    800022c4:	0000006f          	j	800022c4 <terminate+0x24>

00000000800022c8 <wtf>:
    800022c8:	ff010113          	addi	sp,sp,-16
    800022cc:	34900513          	li	a0,841
    800022d0:	00113423          	sd	ra,8(sp)
    800022d4:	fcdff0ef          	jal	800022a0 <terminate>

00000000800022d8 <printhex>:
    800022d8:	fe010113          	addi	sp,sp,-32
    800022dc:	00810613          	addi	a2,sp,8
    800022e0:	01710713          	addi	a4,sp,23
    800022e4:	00900813          	li	a6,9
    800022e8:	0080006f          	j	800022f0 <printhex+0x18>
    800022ec:	00078713          	mv	a4,a5
    800022f0:	00f57693          	andi	a3,a0,15
    800022f4:	00068593          	mv	a1,a3
    800022f8:	05700793          	li	a5,87
    800022fc:	00d86463          	bltu	a6,a3,80002304 <printhex+0x2c>
    80002300:	03000793          	li	a5,48
    80002304:	00b787bb          	addw	a5,a5,a1
    80002308:	00f70023          	sb	a5,0(a4)
    8000230c:	00455513          	srli	a0,a0,0x4
    80002310:	fff70793          	addi	a5,a4,-1
    80002314:	fce61ce3          	bne	a2,a4,800022ec <printhex+0x14>
    80002318:	00814783          	lbu	a5,8(sp)
    8000231c:	00010c23          	sb	zero,24(sp)
    80002320:	04078263          	beqz	a5,80002364 <printhex+0x8c>
    80002324:	10100513          	li	a0,257
    80002328:	00060693          	mv	a3,a2
    8000232c:	03051513          	slli	a0,a0,0x30
    80002330:	fffff717          	auipc	a4,0xfffff
    80002334:	cd070713          	addi	a4,a4,-816 # 80001000 <tohost>
    80002338:	00073583          	ld	a1,0(a4)
    8000233c:	00168693          	addi	a3,a3,1
    80002340:	00a7e633          	or	a2,a5,a0
    80002344:	00058a63          	beqz	a1,80002358 <printhex+0x80>
    80002348:	fffff797          	auipc	a5,0xfffff
    8000234c:	ce07bc23          	sd	zero,-776(a5) # 80001040 <fromhost>
    80002350:	00073783          	ld	a5,0(a4)
    80002354:	fe079ae3          	bnez	a5,80002348 <printhex+0x70>
    80002358:	0006c783          	lbu	a5,0(a3)
    8000235c:	00c73023          	sd	a2,0(a4)
    80002360:	fc079ce3          	bnez	a5,80002338 <printhex+0x60>
    80002364:	02010113          	addi	sp,sp,32
    80002368:	00008067          	ret

000000008000236c <handle_fault>:
    8000236c:	fb010113          	addi	sp,sp,-80
    80002370:	00100793          	li	a5,1
    80002374:	fffff737          	lui	a4,0xfffff
    80002378:	00f12223          	sw	a5,4(sp)
    8000237c:	04113423          	sd	ra,72(sp)
    80002380:	00013423          	sd	zero,8(sp)
    80002384:	00e506b3          	add	a3,a0,a4
    80002388:	0003e7b7          	lui	a5,0x3e
    8000238c:	04813023          	sd	s0,64(sp)
    80002390:	02913c23          	sd	s1,56(sp)
    80002394:	1af6fa63          	bgeu	a3,a5,80002548 <handle_fault+0x1dc>
    80002398:	03413023          	sd	s4,32(sp)
    8000239c:	00c55a13          	srli	s4,a0,0xc
    800023a0:	600a0493          	addi	s1,s4,1536
    800023a4:	03313423          	sd	s3,40(sp)
    800023a8:	00349793          	slli	a5,s1,0x3
    800023ac:	00003997          	auipc	s3,0x3
    800023b0:	c5498993          	addi	s3,s3,-940 # 80005000 <pt>
    800023b4:	00f987b3          	add	a5,s3,a5
    800023b8:	0007b783          	ld	a5,0(a5) # 3e000 <_start-0x7ffc2000>
    800023bc:	00e57433          	and	s0,a0,a4
    800023c0:	10079a63          	bnez	a5,800024d4 <handle_fault+0x168>
    800023c4:	00007717          	auipc	a4,0x7
    800023c8:	c4470713          	addi	a4,a4,-956 # 80009008 <freelist_head>
    800023cc:	01513c23          	sd	s5,24(sp)
    800023d0:	00073a83          	ld	s5,0(a4)
    800023d4:	03213823          	sd	s2,48(sp)
    800023d8:	1c0a8263          	beqz	s5,8000259c <handle_fault+0x230>
    800023dc:	008ab783          	ld	a5,8(s5)
    800023e0:	00007697          	auipc	a3,0x7
    800023e4:	c206b683          	ld	a3,-992(a3) # 80009000 <freelist_tail>
    800023e8:	00f73023          	sd	a5,0(a4)
    800023ec:	14d78863          	beq	a5,a3,8000253c <handle_fault+0x1d0>
    800023f0:	00410613          	addi	a2,sp,4
    800023f4:	00810593          	addi	a1,sp,8
    800023f8:	00040513          	mv	a0,s0
    800023fc:	000ab903          	ld	s2,0(s5)
    80002400:	6a0000ef          	jal	80002aa0 <pf_filter>
    80002404:	10051c63          	bnez	a0,8000251c <handle_fault+0x1b0>
    80002408:	00c95713          	srli	a4,s2,0xc
    8000240c:	00a71713          	slli	a4,a4,0xa
    80002410:	01f76713          	ori	a4,a4,31
    80002414:	00349613          	slli	a2,s1,0x3
    80002418:	00c98633          	add	a2,s3,a2
    8000241c:	0c076793          	ori	a5,a4,192
    80002420:	00f63023          	sd	a5,0(a2)
    80002424:	12040073          	sfence.vma	s0
    80002428:	00002617          	auipc	a2,0x2
    8000242c:	bd860613          	addi	a2,a2,-1064 # 80004000 <user_mapping>
    80002430:	004a1693          	slli	a3,s4,0x4
    80002434:	00d606b3          	add	a3,a2,a3
    80002438:	0006b783          	ld	a5,0(a3)
    8000243c:	14079663          	bnez	a5,80002588 <handle_fault+0x21c>
    80002440:	000ab603          	ld	a2,0(s5)
    80002444:	000407b7          	lui	a5,0x40
    80002448:	00c6b023          	sd	a2,0(a3)
    8000244c:	008ab603          	ld	a2,8(s5)
    80002450:	00c6b423          	sd	a2,8(a3)
    80002454:	1007a5f3          	csrrs	a1,sstatus,a5
    80002458:	ffe007b7          	lui	a5,0xffe00
    8000245c:	00f407b3          	add	a5,s0,a5
    80002460:	00001637          	lui	a2,0x1
    80002464:	00c78633          	add	a2,a5,a2
    80002468:	00040693          	mv	a3,s0
    8000246c:	0007b303          	ld	t1,0(a5) # ffffffffffe00000 <freelist_head+0xffffffff7fdf6ff8>
    80002470:	0087b883          	ld	a7,8(a5)
    80002474:	0107b803          	ld	a6,16(a5)
    80002478:	0187b503          	ld	a0,24(a5)
    8000247c:	0066b023          	sd	t1,0(a3)
    80002480:	0116b423          	sd	a7,8(a3)
    80002484:	0106b823          	sd	a6,16(a3)
    80002488:	00a6bc23          	sd	a0,24(a3)
    8000248c:	02078793          	addi	a5,a5,32
    80002490:	02068693          	addi	a3,a3,32
    80002494:	fcc79ce3          	bne	a5,a2,8000246c <handle_fault+0x100>
    80002498:	10059073          	csrw	sstatus,a1
    8000249c:	00349493          	slli	s1,s1,0x3
    800024a0:	009987b3          	add	a5,s3,s1
    800024a4:	00e7b023          	sd	a4,0(a5)
    800024a8:	12040073          	sfence.vma	s0
    800024ac:	0000100f          	fence.i
    800024b0:	04013403          	ld	s0,64(sp)
    800024b4:	04813083          	ld	ra,72(sp)
    800024b8:	03013903          	ld	s2,48(sp)
    800024bc:	01813a83          	ld	s5,24(sp)
    800024c0:	03813483          	ld	s1,56(sp)
    800024c4:	02813983          	ld	s3,40(sp)
    800024c8:	02013a03          	ld	s4,32(sp)
    800024cc:	05010113          	addi	sp,sp,80
    800024d0:	00008067          	ret
    800024d4:	0407f713          	andi	a4,a5,64
    800024d8:	04070e63          	beqz	a4,80002534 <handle_fault+0x1c8>
    800024dc:	0807f713          	andi	a4,a5,128
    800024e0:	08071663          	bnez	a4,8000256c <handle_fault+0x200>
    800024e4:	00f00713          	li	a4,15
    800024e8:	0807e793          	ori	a5,a5,128
    800024ec:	08e59063          	bne	a1,a4,8000256c <handle_fault+0x200>
    800024f0:	00349493          	slli	s1,s1,0x3
    800024f4:	009984b3          	add	s1,s3,s1
    800024f8:	00f4b023          	sd	a5,0(s1)
    800024fc:	12040073          	sfence.vma	s0
    80002500:	04013403          	ld	s0,64(sp)
    80002504:	04813083          	ld	ra,72(sp)
    80002508:	03813483          	ld	s1,56(sp)
    8000250c:	02813983          	ld	s3,40(sp)
    80002510:	02013a03          	ld	s4,32(sp)
    80002514:	05010113          	addi	sp,sp,80
    80002518:	00008067          	ret
    8000251c:	000ab703          	ld	a4,0(s5)
    80002520:	00813783          	ld	a5,8(sp)
    80002524:	00c75713          	srli	a4,a4,0xc
    80002528:	00a71713          	slli	a4,a4,0xa
    8000252c:	00f76733          	or	a4,a4,a5
    80002530:	ee5ff06f          	j	80002414 <handle_fault+0xa8>
    80002534:	0407e793          	ori	a5,a5,64
    80002538:	fb9ff06f          	j	800024f0 <handle_fault+0x184>
    8000253c:	00007797          	auipc	a5,0x7
    80002540:	ac07b223          	sd	zero,-1340(a5) # 80009000 <freelist_tail>
    80002544:	eadff06f          	j	800023f0 <handle_fault+0x84>
    80002548:	00001517          	auipc	a0,0x1
    8000254c:	81850513          	addi	a0,a0,-2024 # 80002d60 <pass+0xc>
    80002550:	03213823          	sd	s2,48(sp)
    80002554:	03313423          	sd	s3,40(sp)
    80002558:	03413023          	sd	s4,32(sp)
    8000255c:	01513c23          	sd	s5,24(sp)
    80002560:	cf9ff0ef          	jal	80002258 <cputstring>
    80002564:	00300513          	li	a0,3
    80002568:	d39ff0ef          	jal	800022a0 <terminate>
    8000256c:	00001517          	auipc	a0,0x1
    80002570:	83c50513          	addi	a0,a0,-1988 # 80002da8 <pass+0x54>
    80002574:	03213823          	sd	s2,48(sp)
    80002578:	01513c23          	sd	s5,24(sp)
    8000257c:	cddff0ef          	jal	80002258 <cputstring>
    80002580:	00300513          	li	a0,3
    80002584:	d1dff0ef          	jal	800022a0 <terminate>
    80002588:	00001517          	auipc	a0,0x1
    8000258c:	88050513          	addi	a0,a0,-1920 # 80002e08 <pass+0xb4>
    80002590:	cc9ff0ef          	jal	80002258 <cputstring>
    80002594:	00300513          	li	a0,3
    80002598:	d09ff0ef          	jal	800022a0 <terminate>
    8000259c:	00001517          	auipc	a0,0x1
    800025a0:	85450513          	addi	a0,a0,-1964 # 80002df0 <pass+0x9c>
    800025a4:	cb5ff0ef          	jal	80002258 <cputstring>
    800025a8:	00300513          	li	a0,3
    800025ac:	cf5ff0ef          	jal	800022a0 <terminate>

00000000800025b0 <handle_trap>:
    800025b0:	f8010113          	addi	sp,sp,-128
    800025b4:	06813823          	sd	s0,112(sp)
    800025b8:	06113c23          	sd	ra,120(sp)
    800025bc:	00050413          	mv	s0,a0
    800025c0:	4d8000ef          	jal	80002a98 <trap_filter>
    800025c4:	0e051263          	bnez	a0,800026a8 <handle_trap+0xf8>
    800025c8:	11843583          	ld	a1,280(s0)
    800025cc:	00800793          	li	a5,8
    800025d0:	12f58663          	beq	a1,a5,800026fc <handle_trap+0x14c>
    800025d4:	00200793          	li	a5,2
    800025d8:	02f58a63          	beq	a1,a5,8000260c <handle_trap+0x5c>
    800025dc:	ff458793          	addi	a5,a1,-12
    800025e0:	00100713          	li	a4,1
    800025e4:	00f77663          	bgeu	a4,a5,800025f0 <handle_trap+0x40>
    800025e8:	00f00793          	li	a5,15
    800025ec:	24f59863          	bne	a1,a5,8000283c <handle_trap+0x28c>
    800025f0:	11043503          	ld	a0,272(s0)
    800025f4:	d79ff0ef          	jal	8000236c <handle_fault>
    800025f8:	00040513          	mv	a0,s0
    800025fc:	07013403          	ld	s0,112(sp)
    80002600:	07813083          	ld	ra,120(sp)
    80002604:	08010113          	addi	sp,sp,128
    80002608:	ac5fd06f          	j	800000cc <pop_tf>
    8000260c:	10843783          	ld	a5,264(s0)
    80002610:	0037f713          	andi	a4,a5,3
    80002614:	0a071463          	bnez	a4,800026bc <handle_trap+0x10c>
    80002618:	0007a703          	lw	a4,0(a5)
    8000261c:	008007ef          	jal	a5,80002624 <handle_trap+0x74>
    80002620:	00301073          	fscsr	zero
    80002624:	0007a783          	lw	a5,0(a5)
    80002628:	06913423          	sd	s1,104(sp)
    8000262c:	07213023          	sd	s2,96(sp)
    80002630:	05313c23          	sd	s3,88(sp)
    80002634:	05413823          	sd	s4,80(sp)
    80002638:	05513423          	sd	s5,72(sp)
    8000263c:	05613023          	sd	s6,64(sp)
    80002640:	03713c23          	sd	s7,56(sp)
    80002644:	03813823          	sd	s8,48(sp)
    80002648:	03913423          	sd	s9,40(sp)
    8000264c:	03a13023          	sd	s10,32(sp)
    80002650:	01b13c23          	sd	s11,24(sp)
    80002654:	06f70063          	beq	a4,a5,800026b4 <handle_trap+0x104>
    80002658:	10100513          	li	a0,257
    8000265c:	03051513          	slli	a0,a0,0x30
    80002660:	04100793          	li	a5,65
    80002664:	00000697          	auipc	a3,0x0
    80002668:	7e468693          	addi	a3,a3,2020 # 80002e48 <pass+0xf4>
    8000266c:	fffff717          	auipc	a4,0xfffff
    80002670:	99470713          	addi	a4,a4,-1644 # 80001000 <tohost>
    80002674:	00073583          	ld	a1,0(a4)
    80002678:	00168693          	addi	a3,a3,1
    8000267c:	00a7e633          	or	a2,a5,a0
    80002680:	00058a63          	beqz	a1,80002694 <handle_trap+0xe4>
    80002684:	fffff797          	auipc	a5,0xfffff
    80002688:	9a07be23          	sd	zero,-1604(a5) # 80001040 <fromhost>
    8000268c:	00073783          	ld	a5,0(a4)
    80002690:	fe079ae3          	bnez	a5,80002684 <handle_trap+0xd4>
    80002694:	0006c783          	lbu	a5,0(a3)
    80002698:	00c73023          	sd	a2,0(a4)
    8000269c:	fc079ce3          	bnez	a5,80002674 <handle_trap+0xc4>
    800026a0:	00300513          	li	a0,3
    800026a4:	bfdff0ef          	jal	800022a0 <terminate>
    800026a8:	00040513          	mv	a0,s0
    800026ac:	a21fd0ef          	jal	800000cc <pop_tf>
    800026b0:	f19ff06f          	j	800025c8 <handle_trap+0x18>
    800026b4:	00100513          	li	a0,1
    800026b8:	be9ff0ef          	jal	800022a0 <terminate>
    800026bc:	00001517          	auipc	a0,0x1
    800026c0:	82c50513          	addi	a0,a0,-2004 # 80002ee8 <pass+0x194>
    800026c4:	06913423          	sd	s1,104(sp)
    800026c8:	07213023          	sd	s2,96(sp)
    800026cc:	05313c23          	sd	s3,88(sp)
    800026d0:	05413823          	sd	s4,80(sp)
    800026d4:	05513423          	sd	s5,72(sp)
    800026d8:	05613023          	sd	s6,64(sp)
    800026dc:	03713c23          	sd	s7,56(sp)
    800026e0:	03813823          	sd	s8,48(sp)
    800026e4:	03913423          	sd	s9,40(sp)
    800026e8:	03a13023          	sd	s10,32(sp)
    800026ec:	01b13c23          	sd	s11,24(sp)
    800026f0:	b69ff0ef          	jal	80002258 <cputstring>
    800026f4:	00300513          	li	a0,3
    800026f8:	ba9ff0ef          	jal	800022a0 <terminate>
    800026fc:	05042783          	lw	a5,80(s0)
    80002700:	00001437          	lui	s0,0x1
    80002704:	05313c23          	sd	s3,88(sp)
    80002708:	05413823          	sd	s4,80(sp)
    8000270c:	05513423          	sd	s5,72(sp)
    80002710:	05613023          	sd	s6,64(sp)
    80002714:	03713c23          	sd	s7,56(sp)
    80002718:	03813823          	sd	s8,48(sp)
    8000271c:	03913423          	sd	s9,40(sp)
    80002720:	03a13023          	sd	s10,32(sp)
    80002724:	06913423          	sd	s1,104(sp)
    80002728:	07213023          	sd	s2,96(sp)
    8000272c:	01b13c23          	sd	s11,24(sp)
    80002730:	00f13023          	sd	a5,0(sp)
    80002734:	00040a93          	mv	s5,s0
    80002738:	00002a17          	auipc	s4,0x2
    8000273c:	8c8a0a13          	addi	s4,s4,-1848 # 80004000 <user_mapping>
    80002740:	00003d17          	auipc	s10,0x3
    80002744:	8c0d0d13          	addi	s10,s10,-1856 # 80005000 <pt>
    80002748:	00040cb7          	lui	s9,0x40
    8000274c:	ffe00c37          	lui	s8,0xffe00
    80002750:	00007997          	auipc	s3,0x7
    80002754:	8b098993          	addi	s3,s3,-1872 # 80009000 <freelist_tail>
    80002758:	00007b97          	auipc	s7,0x7
    8000275c:	8b0b8b93          	addi	s7,s7,-1872 # 80009008 <freelist_head>
    80002760:	0003fb37          	lui	s6,0x3f
    80002764:	00c45793          	srli	a5,s0,0xc
    80002768:	00479493          	slli	s1,a5,0x4
    8000276c:	009a0733          	add	a4,s4,s1
    80002770:	00073703          	ld	a4,0(a4)
    80002774:	08070c63          	beqz	a4,8000280c <handle_trap+0x25c>
    80002778:	60078793          	addi	a5,a5,1536
    8000277c:	00379793          	slli	a5,a5,0x3
    80002780:	00fd07b3          	add	a5,s10,a5
    80002784:	0007b903          	ld	s2,0(a5)
    80002788:	04097793          	andi	a5,s2,64
    8000278c:	08078e63          	beqz	a5,80002828 <handle_trap+0x278>
    80002790:	100cadf3          	csrrs	s11,sstatus,s9
    80002794:	018407b3          	add	a5,s0,s8
    80002798:	00078593          	mv	a1,a5
    8000279c:	00040513          	mv	a0,s0
    800027a0:	00001637          	lui	a2,0x1
    800027a4:	00f13423          	sd	a5,8(sp)
    800027a8:	989ff0ef          	jal	80002130 <memcmp>
    800027ac:	04050263          	beqz	a0,800027f0 <handle_trap+0x240>
    800027b0:	08097913          	andi	s2,s2,128
    800027b4:	00813783          	ld	a5,8(sp)
    800027b8:	0c090063          	beqz	s2,80002878 <handle_trap+0x2c8>
    800027bc:	00040713          	mv	a4,s0
    800027c0:	015406b3          	add	a3,s0,s5
    800027c4:	00073803          	ld	a6,0(a4)
    800027c8:	00873503          	ld	a0,8(a4)
    800027cc:	01073583          	ld	a1,16(a4)
    800027d0:	01873603          	ld	a2,24(a4)
    800027d4:	0107b023          	sd	a6,0(a5)
    800027d8:	00a7b423          	sd	a0,8(a5)
    800027dc:	00b7b823          	sd	a1,16(a5)
    800027e0:	00c7bc23          	sd	a2,24(a5)
    800027e4:	02070713          	addi	a4,a4,32
    800027e8:	02078793          	addi	a5,a5,32
    800027ec:	fcd71ce3          	bne	a4,a3,800027c4 <handle_trap+0x214>
    800027f0:	009a07b3          	add	a5,s4,s1
    800027f4:	100d9073          	csrw	sstatus,s11
    800027f8:	0009b703          	ld	a4,0(s3)
    800027fc:	0007b023          	sd	zero,0(a5)
    80002800:	00070e63          	beqz	a4,8000281c <handle_trap+0x26c>
    80002804:	00f73423          	sd	a5,8(a4)
    80002808:	00f9b023          	sd	a5,0(s3)
    8000280c:	01540433          	add	s0,s0,s5
    80002810:	f5641ae3          	bne	s0,s6,80002764 <handle_trap+0x1b4>
    80002814:	00013503          	ld	a0,0(sp)
    80002818:	a89ff0ef          	jal	800022a0 <terminate>
    8000281c:	00f9b023          	sd	a5,0(s3)
    80002820:	00fbb023          	sd	a5,0(s7)
    80002824:	fe9ff06f          	j	8000280c <handle_trap+0x25c>
    80002828:	00000517          	auipc	a0,0x0
    8000282c:	65050513          	addi	a0,a0,1616 # 80002e78 <pass+0x124>
    80002830:	a29ff0ef          	jal	80002258 <cputstring>
    80002834:	00300513          	li	a0,3
    80002838:	a69ff0ef          	jal	800022a0 <terminate>
    8000283c:	00000517          	auipc	a0,0x0
    80002840:	6d450513          	addi	a0,a0,1748 # 80002f10 <pass+0x1bc>
    80002844:	06913423          	sd	s1,104(sp)
    80002848:	07213023          	sd	s2,96(sp)
    8000284c:	05313c23          	sd	s3,88(sp)
    80002850:	05413823          	sd	s4,80(sp)
    80002854:	05513423          	sd	s5,72(sp)
    80002858:	05613023          	sd	s6,64(sp)
    8000285c:	03713c23          	sd	s7,56(sp)
    80002860:	03813823          	sd	s8,48(sp)
    80002864:	03913423          	sd	s9,40(sp)
    80002868:	03a13023          	sd	s10,32(sp)
    8000286c:	01b13c23          	sd	s11,24(sp)
    80002870:	9e9ff0ef          	jal	80002258 <cputstring>
    80002874:	e2dff06f          	j	800026a0 <handle_trap+0xf0>
    80002878:	00000517          	auipc	a0,0x0
    8000287c:	63850513          	addi	a0,a0,1592 # 80002eb0 <pass+0x15c>
    80002880:	9d9ff0ef          	jal	80002258 <cputstring>
    80002884:	00300513          	li	a0,3
    80002888:	a19ff0ef          	jal	800022a0 <terminate>

000000008000288c <vm_boot>:
    8000288c:	f14027f3          	csrr	a5,mhartid
    80002890:	18079e63          	bnez	a5,80002a2c <vm_boot+0x1a0>
    80002894:	00003817          	auipc	a6,0x3
    80002898:	76c80813          	addi	a6,a6,1900 # 80006000 <pt+0x1000>
    8000289c:	00005897          	auipc	a7,0x5
    800028a0:	76488893          	addi	a7,a7,1892 # 80008000 <pt+0x3000>
    800028a4:	00004797          	auipc	a5,0x4
    800028a8:	75c78793          	addi	a5,a5,1884 # 80007000 <pt+0x2000>
    800028ac:	ed010113          	addi	sp,sp,-304
    800028b0:	00c8d693          	srli	a3,a7,0xc
    800028b4:	00c85713          	srli	a4,a6,0xc
    800028b8:	00c7d793          	srli	a5,a5,0xc
    800028bc:	12813023          	sd	s0,288(sp)
    800028c0:	00002317          	auipc	t1,0x2
    800028c4:	74030313          	addi	t1,t1,1856 # 80005000 <pt>
    800028c8:	00050413          	mv	s0,a0
    800028cc:	fff00613          	li	a2,-1
    800028d0:	00a79793          	slli	a5,a5,0xa
    800028d4:	00a69693          	slli	a3,a3,0xa
    800028d8:	00a71713          	slli	a4,a4,0xa
    800028dc:	20000537          	lui	a0,0x20000
    800028e0:	12113423          	sd	ra,296(sp)
    800028e4:	0017e793          	ori	a5,a5,1
    800028e8:	0016e693          	ori	a3,a3,1
    800028ec:	00176713          	ori	a4,a4,1
    800028f0:	00c35593          	srli	a1,t1,0xc
    800028f4:	03f61e13          	slli	t3,a2,0x3f
    800028f8:	0cf50513          	addi	a0,a0,207 # 200000cf <_start-0x5fffff31>
    800028fc:	fef83c23          	sd	a5,-8(a6)
    80002900:	00d83023          	sd	a3,0(a6)
    80002904:	00e33023          	sd	a4,0(t1)
    80002908:	01c5e7b3          	or	a5,a1,t3
    8000290c:	fea8bc23          	sd	a0,-8(a7)
    80002910:	18079073          	csrw	satp,a5
    80002914:	18002773          	csrr	a4,satp
    80002918:	16e79463          	bne	a5,a4,80002a80 <vm_boot+0x1f4>
    8000291c:	00b65613          	srli	a2,a2,0xb
    80002920:	01f00793          	li	a5,31
    80002924:	00000297          	auipc	t0,0x0
    80002928:	01428293          	addi	t0,t0,20 # 80002938 <vm_boot+0xac>
    8000292c:	305292f3          	csrrw	t0,mtvec,t0
    80002930:	3b061073          	csrw	pmpaddr0,a2
    80002934:	3a079073          	csrw	pmpcfg0,a5
    80002938:	30529073          	csrw	mtvec,t0
    8000293c:	bff00693          	li	a3,-1025
    80002940:	01569693          	slli	a3,a3,0x15
    80002944:	ffffe797          	auipc	a5,0xffffe
    80002948:	81078793          	addi	a5,a5,-2032 # 80000154 <trap_entry>
    8000294c:	00d787b3          	add	a5,a5,a3
    80002950:	10579073          	csrw	stvec,a5
    80002954:	340027f3          	csrr	a5,mscratch
    80002958:	00d787b3          	add	a5,a5,a3
    8000295c:	14079073          	csrw	sscratch,a5
    80002960:	0000b7b7          	lui	a5,0xb
    80002964:	1007879b          	addiw	a5,a5,256 # b100 <_start-0x7fff4f00>
    80002968:	30279073          	csrw	medeleg,a5
    8000296c:	0001e7b7          	lui	a5,0x1e
    80002970:	6007879b          	addiw	a5,a5,1536 # 1e600 <_start-0x7ffe1a00>
    80002974:	30079073          	csrw	mstatus,a5
    80002978:	30405073          	csrwi	mie,0
    8000297c:	00002717          	auipc	a4,0x2
    80002980:	a7470713          	addi	a4,a4,-1420 # 800043f0 <freelist_nodes>
    80002984:	3e068793          	addi	a5,a3,992
    80002988:	bff00813          	li	a6,-1025
    8000298c:	00d706b3          	add	a3,a4,a3
    80002990:	00f707b3          	add	a5,a4,a5
    80002994:	01581813          	slli	a6,a6,0x15
    80002998:	000808b7          	lui	a7,0x80
    8000299c:	00006617          	auipc	a2,0x6
    800029a0:	66d63623          	sd	a3,1644(a2) # 80009008 <freelist_head>
    800029a4:	01080813          	addi	a6,a6,16
    800029a8:	00006697          	auipc	a3,0x6
    800029ac:	64f6bc23          	sd	a5,1624(a3) # 80009000 <freelist_tail>
    800029b0:	03f88893          	addi	a7,a7,63 # 8003f <_start-0x7ff7ffc1>
    800029b4:	00002317          	auipc	t1,0x2
    800029b8:	e2c30313          	addi	t1,t1,-468 # 800047e0 <freelist_nodes+0x3f0>
    800029bc:	00700793          	li	a5,7
    800029c0:	0017d613          	srli	a2,a5,0x1
    800029c4:	00f646b3          	xor	a3,a2,a5
    800029c8:	011787b3          	add	a5,a5,a7
    800029cc:	00c79793          	slli	a5,a5,0xc
    800029d0:	010705b3          	add	a1,a4,a6
    800029d4:	00569693          	slli	a3,a3,0x5
    800029d8:	00f73023          	sd	a5,0(a4)
    800029dc:	0206f693          	andi	a3,a3,32
    800029e0:	00b73423          	sd	a1,8(a4)
    800029e4:	01070713          	addi	a4,a4,16
    800029e8:	00d667b3          	or	a5,a2,a3
    800029ec:	fce31ae3          	bne	t1,a4,800029c0 <vm_boot+0x134>
    800029f0:	00010513          	mv	a0,sp
    800029f4:	12000613          	li	a2,288
    800029f8:	00000593          	li	a1,0
    800029fc:	00002797          	auipc	a5,0x2
    80002a00:	dc07be23          	sd	zero,-548(a5) # 800047d8 <freelist_nodes+0x3e8>
    80002a04:	e58ff0ef          	jal	8000205c <memset>
    80002a08:	800007b7          	lui	a5,0x80000
    80002a0c:	00f40433          	add	s0,s0,a5
    80002a10:	00010513          	mv	a0,sp
    80002a14:	10813423          	sd	s0,264(sp)
    80002a18:	eb4fd0ef          	jal	800000cc <pop_tf>
    80002a1c:	12813083          	ld	ra,296(sp)
    80002a20:	12013403          	ld	s0,288(sp)
    80002a24:	13010113          	addi	sp,sp,304
    80002a28:	00008067          	ret
    80002a2c:	00100613          	li	a2,1
    80002a30:	00060693          	mv	a3,a2
    80002a34:	039687b7          	lui	a5,0x3968
    80002a38:	000805b7          	lui	a1,0x80
    80002a3c:	c8378793          	addi	a5,a5,-893 # 3967c83 <_start-0x7c69837d>
    80002a40:	ffc58593          	addi	a1,a1,-4 # 7fffc <_start-0x7ff80004>
    80002a44:	01f61613          	slli	a2,a2,0x1f
    80002a48:	03e69693          	slli	a3,a3,0x3e
    80002a4c:	01c0006f          	j	80002a68 <vm_boot+0x1dc>
    80002a50:	0007202f          	amoadd.w	zero,zero,(a4)
    80002a54:	0017d713          	srli	a4,a5,0x1
    80002a58:	00e7c7b3          	xor	a5,a5,a4
    80002a5c:	03e79793          	slli	a5,a5,0x3e
    80002a60:	00d7f7b3          	and	a5,a5,a3
    80002a64:	00e7e7b3          	or	a5,a5,a4
    80002a68:	00b7f733          	and	a4,a5,a1
    80002a6c:	0017f513          	andi	a0,a5,1
    80002a70:	00c70733          	add	a4,a4,a2
    80002a74:	fc051ee3          	bnez	a0,80002a50 <vm_boot+0x1c4>
    80002a78:	00072003          	lw	zero,0(a4)
    80002a7c:	fd9ff06f          	j	80002a54 <vm_boot+0x1c8>
    80002a80:	00000517          	auipc	a0,0x0
    80002a84:	4c050513          	addi	a0,a0,1216 # 80002f40 <pass+0x1ec>
    80002a88:	fd0ff0ef          	jal	80002258 <cputstring>
    80002a8c:	00300513          	li	a0,3
    80002a90:	811ff0ef          	jal	800022a0 <terminate>

0000000080002a94 <extra_boot>:
    80002a94:	00008067          	ret

0000000080002a98 <trap_filter>:
    80002a98:	00000513          	li	a0,0
    80002a9c:	00008067          	ret

0000000080002aa0 <pf_filter>:
    80002aa0:	00000513          	li	a0,0
    80002aa4:	00008067          	ret

0000000080002aa8 <userstart>:
    80002aa8:	00200193          	li	gp,2
    80002aac:	0ff00793          	li	a5,255
    80002ab0:	00000117          	auipc	sp,0x0
    80002ab4:	55010113          	addi	sp,sp,1360 # 80003000 <begin_signature>
    80002ab8:	00011703          	lh	a4,0(sp)
    80002abc:	0ff00393          	li	t2,255
    80002ac0:	28771263          	bne	a4,t2,80002d44 <fail>

0000000080002ac4 <test_3>:
    80002ac4:	00300193          	li	gp,3
    80002ac8:	f0000793          	li	a5,-256
    80002acc:	00000117          	auipc	sp,0x0
    80002ad0:	53410113          	addi	sp,sp,1332 # 80003000 <begin_signature>
    80002ad4:	00211703          	lh	a4,2(sp)
    80002ad8:	f0000393          	li	t2,-256
    80002adc:	26771463          	bne	a4,t2,80002d44 <fail>

0000000080002ae0 <test_4>:
    80002ae0:	00400193          	li	gp,4
    80002ae4:	000017b7          	lui	a5,0x1
    80002ae8:	ff07879b          	addiw	a5,a5,-16 # ff0 <_start-0x7ffff010>
    80002aec:	00000117          	auipc	sp,0x0
    80002af0:	51410113          	addi	sp,sp,1300 # 80003000 <begin_signature>
    80002af4:	00411703          	lh	a4,4(sp)
    80002af8:	000013b7          	lui	t2,0x1
    80002afc:	ff03839b          	addiw	t2,t2,-16 # ff0 <_start-0x7ffff010>
    80002b00:	24771263          	bne	a4,t2,80002d44 <fail>

0000000080002b04 <test_5>:
    80002b04:	00500193          	li	gp,5
    80002b08:	fffff7b7          	lui	a5,0xfffff
    80002b0c:	00f7879b          	addiw	a5,a5,15 # fffffffffffff00f <freelist_head+0xffffffff7fff6007>
    80002b10:	00000117          	auipc	sp,0x0
    80002b14:	4f010113          	addi	sp,sp,1264 # 80003000 <begin_signature>
    80002b18:	00611703          	lh	a4,6(sp)
    80002b1c:	fffff3b7          	lui	t2,0xfffff
    80002b20:	00f3839b          	addiw	t2,t2,15 # fffffffffffff00f <freelist_head+0xffffffff7fff6007>
    80002b24:	22771063          	bne	a4,t2,80002d44 <fail>

0000000080002b28 <test_6>:
    80002b28:	00600193          	li	gp,6
    80002b2c:	0ff00793          	li	a5,255
    80002b30:	00000117          	auipc	sp,0x0
    80002b34:	4d610113          	addi	sp,sp,1238 # 80003006 <tdat4>
    80002b38:	ffa11703          	lh	a4,-6(sp)
    80002b3c:	0ff00393          	li	t2,255
    80002b40:	20771263          	bne	a4,t2,80002d44 <fail>

0000000080002b44 <test_7>:
    80002b44:	00700193          	li	gp,7
    80002b48:	f0000793          	li	a5,-256
    80002b4c:	00000117          	auipc	sp,0x0
    80002b50:	4ba10113          	addi	sp,sp,1210 # 80003006 <tdat4>
    80002b54:	ffc11703          	lh	a4,-4(sp)
    80002b58:	f0000393          	li	t2,-256
    80002b5c:	1e771463          	bne	a4,t2,80002d44 <fail>

0000000080002b60 <test_8>:
    80002b60:	00800193          	li	gp,8
    80002b64:	000017b7          	lui	a5,0x1
    80002b68:	ff07879b          	addiw	a5,a5,-16 # ff0 <_start-0x7ffff010>
    80002b6c:	00000117          	auipc	sp,0x0
    80002b70:	49a10113          	addi	sp,sp,1178 # 80003006 <tdat4>
    80002b74:	ffe11703          	lh	a4,-2(sp)
    80002b78:	000013b7          	lui	t2,0x1
    80002b7c:	ff03839b          	addiw	t2,t2,-16 # ff0 <_start-0x7ffff010>
    80002b80:	1c771263          	bne	a4,t2,80002d44 <fail>

0000000080002b84 <test_9>:
    80002b84:	00900193          	li	gp,9
    80002b88:	fffff7b7          	lui	a5,0xfffff
    80002b8c:	00f7879b          	addiw	a5,a5,15 # fffffffffffff00f <freelist_head+0xffffffff7fff6007>
    80002b90:	00000117          	auipc	sp,0x0
    80002b94:	47610113          	addi	sp,sp,1142 # 80003006 <tdat4>
    80002b98:	00011703          	lh	a4,0(sp)
    80002b9c:	fffff3b7          	lui	t2,0xfffff
    80002ba0:	00f3839b          	addiw	t2,t2,15 # fffffffffffff00f <freelist_head+0xffffffff7fff6007>
    80002ba4:	1a771063          	bne	a4,t2,80002d44 <fail>

0000000080002ba8 <test_10>:
    80002ba8:	00a00193          	li	gp,10
    80002bac:	00000097          	auipc	ra,0x0
    80002bb0:	45408093          	addi	ra,ra,1108 # 80003000 <begin_signature>
    80002bb4:	fe008093          	addi	ra,ra,-32
    80002bb8:	02009283          	lh	t0,32(ra)
    80002bbc:	0ff00393          	li	t2,255
    80002bc0:	18729263          	bne	t0,t2,80002d44 <fail>

0000000080002bc4 <test_11>:
    80002bc4:	00b00193          	li	gp,11
    80002bc8:	00000097          	auipc	ra,0x0
    80002bcc:	43808093          	addi	ra,ra,1080 # 80003000 <begin_signature>
    80002bd0:	ffb08093          	addi	ra,ra,-5
    80002bd4:	00709283          	lh	t0,7(ra)
    80002bd8:	f0000393          	li	t2,-256
    80002bdc:	16729463          	bne	t0,t2,80002d44 <fail>

0000000080002be0 <test_12>:
    80002be0:	00c00193          	li	gp,12
    80002be4:	00000213          	li	tp,0
    80002be8:	00000697          	auipc	a3,0x0
    80002bec:	41a68693          	addi	a3,a3,1050 # 80003002 <tdat2>
    80002bf0:	00269703          	lh	a4,2(a3)
    80002bf4:	00070313          	mv	t1,a4
    80002bf8:	000013b7          	lui	t2,0x1
    80002bfc:	ff03839b          	addiw	t2,t2,-16 # ff0 <_start-0x7ffff010>
    80002c00:	14731263          	bne	t1,t2,80002d44 <fail>
    80002c04:	00120213          	addi	tp,tp,1 # 1 <_start-0x7fffffff>
    80002c08:	00200293          	li	t0,2
    80002c0c:	fc521ee3          	bne	tp,t0,80002be8 <test_12+0x8>

0000000080002c10 <test_13>:
    80002c10:	00d00193          	li	gp,13
    80002c14:	00000213          	li	tp,0
    80002c18:	00000697          	auipc	a3,0x0
    80002c1c:	3ec68693          	addi	a3,a3,1004 # 80003004 <tdat3>
    80002c20:	00269703          	lh	a4,2(a3)
    80002c24:	00000013          	nop
    80002c28:	00070313          	mv	t1,a4
    80002c2c:	fffff3b7          	lui	t2,0xfffff
    80002c30:	00f3839b          	addiw	t2,t2,15 # fffffffffffff00f <freelist_head+0xffffffff7fff6007>
    80002c34:	10731863          	bne	t1,t2,80002d44 <fail>
    80002c38:	00120213          	addi	tp,tp,1 # 1 <_start-0x7fffffff>
    80002c3c:	00200293          	li	t0,2
    80002c40:	fc521ce3          	bne	tp,t0,80002c18 <test_13+0x8>

0000000080002c44 <test_14>:
    80002c44:	00e00193          	li	gp,14
    80002c48:	00000213          	li	tp,0
    80002c4c:	00000697          	auipc	a3,0x0
    80002c50:	3b468693          	addi	a3,a3,948 # 80003000 <begin_signature>
    80002c54:	00269703          	lh	a4,2(a3)
    80002c58:	00000013          	nop
    80002c5c:	00000013          	nop
    80002c60:	00070313          	mv	t1,a4
    80002c64:	f0000393          	li	t2,-256
    80002c68:	0c731e63          	bne	t1,t2,80002d44 <fail>
    80002c6c:	00120213          	addi	tp,tp,1 # 1 <_start-0x7fffffff>
    80002c70:	00200293          	li	t0,2
    80002c74:	fc521ce3          	bne	tp,t0,80002c4c <test_14+0x8>

0000000080002c78 <test_15>:
    80002c78:	00f00193          	li	gp,15
    80002c7c:	00000213          	li	tp,0
    80002c80:	00000697          	auipc	a3,0x0
    80002c84:	38268693          	addi	a3,a3,898 # 80003002 <tdat2>
    80002c88:	00269703          	lh	a4,2(a3)
    80002c8c:	000013b7          	lui	t2,0x1
    80002c90:	ff03839b          	addiw	t2,t2,-16 # ff0 <_start-0x7ffff010>
    80002c94:	0a771863          	bne	a4,t2,80002d44 <fail>
    80002c98:	00120213          	addi	tp,tp,1 # 1 <_start-0x7fffffff>
    80002c9c:	00200293          	li	t0,2
    80002ca0:	fe5210e3          	bne	tp,t0,80002c80 <test_15+0x8>

0000000080002ca4 <test_16>:
    80002ca4:	01000193          	li	gp,16
    80002ca8:	00000213          	li	tp,0
    80002cac:	00000697          	auipc	a3,0x0
    80002cb0:	35868693          	addi	a3,a3,856 # 80003004 <tdat3>
    80002cb4:	00000013          	nop
    80002cb8:	00269703          	lh	a4,2(a3)
    80002cbc:	fffff3b7          	lui	t2,0xfffff
    80002cc0:	00f3839b          	addiw	t2,t2,15 # fffffffffffff00f <freelist_head+0xffffffff7fff6007>
    80002cc4:	08771063          	bne	a4,t2,80002d44 <fail>
    80002cc8:	00120213          	addi	tp,tp,1 # 1 <_start-0x7fffffff>
    80002ccc:	00200293          	li	t0,2
    80002cd0:	fc521ee3          	bne	tp,t0,80002cac <test_16+0x8>

0000000080002cd4 <test_17>:
    80002cd4:	01100193          	li	gp,17
    80002cd8:	00000213          	li	tp,0
    80002cdc:	00000697          	auipc	a3,0x0
    80002ce0:	32468693          	addi	a3,a3,804 # 80003000 <begin_signature>
    80002ce4:	00000013          	nop
    80002ce8:	00000013          	nop
    80002cec:	00269703          	lh	a4,2(a3)
    80002cf0:	f0000393          	li	t2,-256
    80002cf4:	04771863          	bne	a4,t2,80002d44 <fail>
    80002cf8:	00120213          	addi	tp,tp,1 # 1 <_start-0x7fffffff>
    80002cfc:	00200293          	li	t0,2
    80002d00:	fc521ee3          	bne	tp,t0,80002cdc <test_17+0x8>

0000000080002d04 <test_18>:
    80002d04:	01200193          	li	gp,18
    80002d08:	00000297          	auipc	t0,0x0
    80002d0c:	2f828293          	addi	t0,t0,760 # 80003000 <begin_signature>
    80002d10:	00029103          	lh	sp,0(t0)
    80002d14:	00200113          	li	sp,2
    80002d18:	00200393          	li	t2,2
    80002d1c:	02711463          	bne	sp,t2,80002d44 <fail>

0000000080002d20 <test_19>:
    80002d20:	01300193          	li	gp,19
    80002d24:	00000297          	auipc	t0,0x0
    80002d28:	2dc28293          	addi	t0,t0,732 # 80003000 <begin_signature>
    80002d2c:	00029103          	lh	sp,0(t0)
    80002d30:	00000013          	nop
    80002d34:	00200113          	li	sp,2
    80002d38:	00200393          	li	t2,2
    80002d3c:	00711463          	bne	sp,t2,80002d44 <fail>
    80002d40:	00301a63          	bne	zero,gp,80002d54 <pass>

0000000080002d44 <fail>:
    80002d44:	00119513          	slli	a0,gp,0x1
    80002d48:	00050063          	beqz	a0,80002d48 <fail+0x4>
    80002d4c:	00156513          	ori	a0,a0,1
    80002d50:	00000073          	ecall

0000000080002d54 <pass>:
    80002d54:	00100513          	li	a0,1
    80002d58:	00000073          	ecall
    80002d5c:	c0001073          	unimp
